
Mpu_decouple.elf:     file format elf32-littlearm

Sections:
Idx Name          Size      VMA       LMA       File off  Algn
  0 .isr_vector   000000bc  08000000  08000000  00010000  2**0
                  CONTENTS, ALLOC, LOAD, READONLY, DATA
  1 .text         00002980  080000bc  080000bc  000100bc  2**2
                  CONTENTS, ALLOC, LOAD, READONLY, CODE
  2 .rodata       000000a4  08002a3c  08002a3c  00012a3c  2**2
                  CONTENTS, ALLOC, LOAD, READONLY, DATA
  3 .ARM.extab    00000000  08002ae0  08002ae0  0002000c  2**0
                  CONTENTS
  4 .ARM          00000008  08002ae0  08002ae0  00012ae0  2**2
                  CONTENTS, ALLOC, LOAD, READONLY, DATA
  5 .preinit_array 00000000  08002ae8  08002ae8  0002000c  2**0
                  CONTENTS, ALLOC, LOAD, DATA
  6 .init_array   00000004  08002ae8  08002ae8  00012ae8  2**2
                  CONTENTS, ALLOC, LOAD, DATA
  7 .fini_array   00000004  08002aec  08002aec  00012aec  2**2
                  CONTENTS, ALLOC, LOAD, DATA
  8 .data         0000000c  20000000  08002af0  00020000  2**2
                  CONTENTS, ALLOC, LOAD, DATA
  9 .bss          00000104  2000000c  08002afc  0002000c  2**2
                  ALLOC
 10 ._user_heap_stack 00000600  20000110  08002afc  00020110  2**0
                  ALLOC
 11 .ARM.attributes 00000028  00000000  00000000  0002000c  2**0
                  CONTENTS, READONLY
 12 .comment      00000050  00000000  00000000  00020034  2**0
                  CONTENTS, READONLY
 13 .debug_frame  000000c8  00000000  00000000  00020084  2**2
                  CONTENTS, READONLY, DEBUGGING, OCTETS

Disassembly of section .text:

080000bc <__do_global_dtors_aux>:
 80000bc:	b510      	push	{r4, lr}
 80000be:	4c06      	ldr	r4, [pc, #24]	; (80000d8 <__do_global_dtors_aux+0x1c>)
 80000c0:	7823      	ldrb	r3, [r4, #0]
 80000c2:	2b00      	cmp	r3, #0
 80000c4:	d107      	bne.n	80000d6 <__do_global_dtors_aux+0x1a>
 80000c6:	4b05      	ldr	r3, [pc, #20]	; (80000dc <__do_global_dtors_aux+0x20>)
 80000c8:	2b00      	cmp	r3, #0
 80000ca:	d002      	beq.n	80000d2 <__do_global_dtors_aux+0x16>
 80000cc:	4804      	ldr	r0, [pc, #16]	; (80000e0 <__do_global_dtors_aux+0x24>)
 80000ce:	e000      	b.n	80000d2 <__do_global_dtors_aux+0x16>
 80000d0:	bf00      	nop
 80000d2:	2301      	movs	r3, #1
 80000d4:	7023      	strb	r3, [r4, #0]
 80000d6:	bd10      	pop	{r4, pc}
 80000d8:	2000000c 	.word	0x2000000c
 80000dc:	00000000 	.word	0x00000000
 80000e0:	08002a24 	.word	0x08002a24

080000e4 <frame_dummy>:
 80000e4:	4b04      	ldr	r3, [pc, #16]	; (80000f8 <frame_dummy+0x14>)
 80000e6:	b510      	push	{r4, lr}
 80000e8:	2b00      	cmp	r3, #0
 80000ea:	d003      	beq.n	80000f4 <frame_dummy+0x10>
 80000ec:	4903      	ldr	r1, [pc, #12]	; (80000fc <frame_dummy+0x18>)
 80000ee:	4804      	ldr	r0, [pc, #16]	; (8000100 <frame_dummy+0x1c>)
 80000f0:	e000      	b.n	80000f4 <frame_dummy+0x10>
 80000f2:	bf00      	nop
 80000f4:	bd10      	pop	{r4, pc}
 80000f6:	46c0      	nop			; (mov r8, r8)
 80000f8:	00000000 	.word	0x00000000
 80000fc:	20000010 	.word	0x20000010
 8000100:	08002a24 	.word	0x08002a24

08000104 <__udivsi3>:
 8000104:	2200      	movs	r2, #0
 8000106:	0843      	lsrs	r3, r0, #1
 8000108:	428b      	cmp	r3, r1
 800010a:	d374      	bcc.n	80001f6 <__udivsi3+0xf2>
 800010c:	0903      	lsrs	r3, r0, #4
 800010e:	428b      	cmp	r3, r1
 8000110:	d35f      	bcc.n	80001d2 <__udivsi3+0xce>
 8000112:	0a03      	lsrs	r3, r0, #8
 8000114:	428b      	cmp	r3, r1
 8000116:	d344      	bcc.n	80001a2 <__udivsi3+0x9e>
 8000118:	0b03      	lsrs	r3, r0, #12
 800011a:	428b      	cmp	r3, r1
 800011c:	d328      	bcc.n	8000170 <__udivsi3+0x6c>
 800011e:	0c03      	lsrs	r3, r0, #16
 8000120:	428b      	cmp	r3, r1
 8000122:	d30d      	bcc.n	8000140 <__udivsi3+0x3c>
 8000124:	22ff      	movs	r2, #255	; 0xff
 8000126:	0209      	lsls	r1, r1, #8
 8000128:	ba12      	rev	r2, r2
 800012a:	0c03      	lsrs	r3, r0, #16
 800012c:	428b      	cmp	r3, r1
 800012e:	d302      	bcc.n	8000136 <__udivsi3+0x32>
 8000130:	1212      	asrs	r2, r2, #8
 8000132:	0209      	lsls	r1, r1, #8
 8000134:	d065      	beq.n	8000202 <__udivsi3+0xfe>
 8000136:	0b03      	lsrs	r3, r0, #12
 8000138:	428b      	cmp	r3, r1
 800013a:	d319      	bcc.n	8000170 <__udivsi3+0x6c>
 800013c:	e000      	b.n	8000140 <__udivsi3+0x3c>
 800013e:	0a09      	lsrs	r1, r1, #8
 8000140:	0bc3      	lsrs	r3, r0, #15
 8000142:	428b      	cmp	r3, r1
 8000144:	d301      	bcc.n	800014a <__udivsi3+0x46>
 8000146:	03cb      	lsls	r3, r1, #15
 8000148:	1ac0      	subs	r0, r0, r3
 800014a:	4152      	adcs	r2, r2
 800014c:	0b83      	lsrs	r3, r0, #14
 800014e:	428b      	cmp	r3, r1
 8000150:	d301      	bcc.n	8000156 <__udivsi3+0x52>
 8000152:	038b      	lsls	r3, r1, #14
 8000154:	1ac0      	subs	r0, r0, r3
 8000156:	4152      	adcs	r2, r2
 8000158:	0b43      	lsrs	r3, r0, #13
 800015a:	428b      	cmp	r3, r1
 800015c:	d301      	bcc.n	8000162 <__udivsi3+0x5e>
 800015e:	034b      	lsls	r3, r1, #13
 8000160:	1ac0      	subs	r0, r0, r3
 8000162:	4152      	adcs	r2, r2
 8000164:	0b03      	lsrs	r3, r0, #12
 8000166:	428b      	cmp	r3, r1
 8000168:	d301      	bcc.n	800016e <__udivsi3+0x6a>
 800016a:	030b      	lsls	r3, r1, #12
 800016c:	1ac0      	subs	r0, r0, r3
 800016e:	4152      	adcs	r2, r2
 8000170:	0ac3      	lsrs	r3, r0, #11
 8000172:	428b      	cmp	r3, r1
 8000174:	d301      	bcc.n	800017a <__udivsi3+0x76>
 8000176:	02cb      	lsls	r3, r1, #11
 8000178:	1ac0      	subs	r0, r0, r3
 800017a:	4152      	adcs	r2, r2
 800017c:	0a83      	lsrs	r3, r0, #10
 800017e:	428b      	cmp	r3, r1
 8000180:	d301      	bcc.n	8000186 <__udivsi3+0x82>
 8000182:	028b      	lsls	r3, r1, #10
 8000184:	1ac0      	subs	r0, r0, r3
 8000186:	4152      	adcs	r2, r2
 8000188:	0a43      	lsrs	r3, r0, #9
 800018a:	428b      	cmp	r3, r1
 800018c:	d301      	bcc.n	8000192 <__udivsi3+0x8e>
 800018e:	024b      	lsls	r3, r1, #9
 8000190:	1ac0      	subs	r0, r0, r3
 8000192:	4152      	adcs	r2, r2
 8000194:	0a03      	lsrs	r3, r0, #8
 8000196:	428b      	cmp	r3, r1
 8000198:	d301      	bcc.n	800019e <__udivsi3+0x9a>
 800019a:	020b      	lsls	r3, r1, #8
 800019c:	1ac0      	subs	r0, r0, r3
 800019e:	4152      	adcs	r2, r2
 80001a0:	d2cd      	bcs.n	800013e <__udivsi3+0x3a>
 80001a2:	09c3      	lsrs	r3, r0, #7
 80001a4:	428b      	cmp	r3, r1
 80001a6:	d301      	bcc.n	80001ac <__udivsi3+0xa8>
 80001a8:	01cb      	lsls	r3, r1, #7
 80001aa:	1ac0      	subs	r0, r0, r3
 80001ac:	4152      	adcs	r2, r2
 80001ae:	0983      	lsrs	r3, r0, #6
 80001b0:	428b      	cmp	r3, r1
 80001b2:	d301      	bcc.n	80001b8 <__udivsi3+0xb4>
 80001b4:	018b      	lsls	r3, r1, #6
 80001b6:	1ac0      	subs	r0, r0, r3
 80001b8:	4152      	adcs	r2, r2
 80001ba:	0943      	lsrs	r3, r0, #5
 80001bc:	428b      	cmp	r3, r1
 80001be:	d301      	bcc.n	80001c4 <__udivsi3+0xc0>
 80001c0:	014b      	lsls	r3, r1, #5
 80001c2:	1ac0      	subs	r0, r0, r3
 80001c4:	4152      	adcs	r2, r2
 80001c6:	0903      	lsrs	r3, r0, #4
 80001c8:	428b      	cmp	r3, r1
 80001ca:	d301      	bcc.n	80001d0 <__udivsi3+0xcc>
 80001cc:	010b      	lsls	r3, r1, #4
 80001ce:	1ac0      	subs	r0, r0, r3
 80001d0:	4152      	adcs	r2, r2
 80001d2:	08c3      	lsrs	r3, r0, #3
 80001d4:	428b      	cmp	r3, r1
 80001d6:	d301      	bcc.n	80001dc <__udivsi3+0xd8>
 80001d8:	00cb      	lsls	r3, r1, #3
 80001da:	1ac0      	subs	r0, r0, r3
 80001dc:	4152      	adcs	r2, r2
 80001de:	0883      	lsrs	r3, r0, #2
 80001e0:	428b      	cmp	r3, r1
 80001e2:	d301      	bcc.n	80001e8 <__udivsi3+0xe4>
 80001e4:	008b      	lsls	r3, r1, #2
 80001e6:	1ac0      	subs	r0, r0, r3
 80001e8:	4152      	adcs	r2, r2
 80001ea:	0843      	lsrs	r3, r0, #1
 80001ec:	428b      	cmp	r3, r1
 80001ee:	d301      	bcc.n	80001f4 <__udivsi3+0xf0>
 80001f0:	004b      	lsls	r3, r1, #1
 80001f2:	1ac0      	subs	r0, r0, r3
 80001f4:	4152      	adcs	r2, r2
 80001f6:	1a41      	subs	r1, r0, r1
 80001f8:	d200      	bcs.n	80001fc <__udivsi3+0xf8>
 80001fa:	4601      	mov	r1, r0
 80001fc:	4152      	adcs	r2, r2
 80001fe:	4610      	mov	r0, r2
 8000200:	4770      	bx	lr
 8000202:	e7ff      	b.n	8000204 <__udivsi3+0x100>
 8000204:	b501      	push	{r0, lr}
 8000206:	2000      	movs	r0, #0
 8000208:	f000 f8f0 	bl	80003ec <__aeabi_idiv0>
 800020c:	bd02      	pop	{r1, pc}
 800020e:	46c0      	nop			; (mov r8, r8)

08000210 <__aeabi_uidivmod>:
 8000210:	2900      	cmp	r1, #0
 8000212:	d0f7      	beq.n	8000204 <__udivsi3+0x100>
 8000214:	e776      	b.n	8000104 <__udivsi3>
 8000216:	4770      	bx	lr

08000218 <__divsi3>:
 8000218:	4603      	mov	r3, r0
 800021a:	430b      	orrs	r3, r1
 800021c:	d47f      	bmi.n	800031e <__divsi3+0x106>
 800021e:	2200      	movs	r2, #0
 8000220:	0843      	lsrs	r3, r0, #1
 8000222:	428b      	cmp	r3, r1
 8000224:	d374      	bcc.n	8000310 <__divsi3+0xf8>
 8000226:	0903      	lsrs	r3, r0, #4
 8000228:	428b      	cmp	r3, r1
 800022a:	d35f      	bcc.n	80002ec <__divsi3+0xd4>
 800022c:	0a03      	lsrs	r3, r0, #8
 800022e:	428b      	cmp	r3, r1
 8000230:	d344      	bcc.n	80002bc <__divsi3+0xa4>
 8000232:	0b03      	lsrs	r3, r0, #12
 8000234:	428b      	cmp	r3, r1
 8000236:	d328      	bcc.n	800028a <__divsi3+0x72>
 8000238:	0c03      	lsrs	r3, r0, #16
 800023a:	428b      	cmp	r3, r1
 800023c:	d30d      	bcc.n	800025a <__divsi3+0x42>
 800023e:	22ff      	movs	r2, #255	; 0xff
 8000240:	0209      	lsls	r1, r1, #8
 8000242:	ba12      	rev	r2, r2
 8000244:	0c03      	lsrs	r3, r0, #16
 8000246:	428b      	cmp	r3, r1
 8000248:	d302      	bcc.n	8000250 <__divsi3+0x38>
 800024a:	1212      	asrs	r2, r2, #8
 800024c:	0209      	lsls	r1, r1, #8
 800024e:	d065      	beq.n	800031c <__divsi3+0x104>
 8000250:	0b03      	lsrs	r3, r0, #12
 8000252:	428b      	cmp	r3, r1
 8000254:	d319      	bcc.n	800028a <__divsi3+0x72>
 8000256:	e000      	b.n	800025a <__divsi3+0x42>
 8000258:	0a09      	lsrs	r1, r1, #8
 800025a:	0bc3      	lsrs	r3, r0, #15
 800025c:	428b      	cmp	r3, r1
 800025e:	d301      	bcc.n	8000264 <__divsi3+0x4c>
 8000260:	03cb      	lsls	r3, r1, #15
 8000262:	1ac0      	subs	r0, r0, r3
 8000264:	4152      	adcs	r2, r2
 8000266:	0b83      	lsrs	r3, r0, #14
 8000268:	428b      	cmp	r3, r1
 800026a:	d301      	bcc.n	8000270 <__divsi3+0x58>
 800026c:	038b      	lsls	r3, r1, #14
 800026e:	1ac0      	subs	r0, r0, r3
 8000270:	4152      	adcs	r2, r2
 8000272:	0b43      	lsrs	r3, r0, #13
 8000274:	428b      	cmp	r3, r1
 8000276:	d301      	bcc.n	800027c <__divsi3+0x64>
 8000278:	034b      	lsls	r3, r1, #13
 800027a:	1ac0      	subs	r0, r0, r3
 800027c:	4152      	adcs	r2, r2
 800027e:	0b03      	lsrs	r3, r0, #12
 8000280:	428b      	cmp	r3, r1
 8000282:	d301      	bcc.n	8000288 <__divsi3+0x70>
 8000284:	030b      	lsls	r3, r1, #12
 8000286:	1ac0      	subs	r0, r0, r3
 8000288:	4152      	adcs	r2, r2
 800028a:	0ac3      	lsrs	r3, r0, #11
 800028c:	428b      	cmp	r3, r1
 800028e:	d301      	bcc.n	8000294 <__divsi3+0x7c>
 8000290:	02cb      	lsls	r3, r1, #11
 8000292:	1ac0      	subs	r0, r0, r3
 8000294:	4152      	adcs	r2, r2
 8000296:	0a83      	lsrs	r3, r0, #10
 8000298:	428b      	cmp	r3, r1
 800029a:	d301      	bcc.n	80002a0 <__divsi3+0x88>
 800029c:	028b      	lsls	r3, r1, #10
 800029e:	1ac0      	subs	r0, r0, r3
 80002a0:	4152      	adcs	r2, r2
 80002a2:	0a43      	lsrs	r3, r0, #9
 80002a4:	428b      	cmp	r3, r1
 80002a6:	d301      	bcc.n	80002ac <__divsi3+0x94>
 80002a8:	024b      	lsls	r3, r1, #9
 80002aa:	1ac0      	subs	r0, r0, r3
 80002ac:	4152      	adcs	r2, r2
 80002ae:	0a03      	lsrs	r3, r0, #8
 80002b0:	428b      	cmp	r3, r1
 80002b2:	d301      	bcc.n	80002b8 <__divsi3+0xa0>
 80002b4:	020b      	lsls	r3, r1, #8
 80002b6:	1ac0      	subs	r0, r0, r3
 80002b8:	4152      	adcs	r2, r2
 80002ba:	d2cd      	bcs.n	8000258 <__divsi3+0x40>
 80002bc:	09c3      	lsrs	r3, r0, #7
 80002be:	428b      	cmp	r3, r1
 80002c0:	d301      	bcc.n	80002c6 <__divsi3+0xae>
 80002c2:	01cb      	lsls	r3, r1, #7
 80002c4:	1ac0      	subs	r0, r0, r3
 80002c6:	4152      	adcs	r2, r2
 80002c8:	0983      	lsrs	r3, r0, #6
 80002ca:	428b      	cmp	r3, r1
 80002cc:	d301      	bcc.n	80002d2 <__divsi3+0xba>
 80002ce:	018b      	lsls	r3, r1, #6
 80002d0:	1ac0      	subs	r0, r0, r3
 80002d2:	4152      	adcs	r2, r2
 80002d4:	0943      	lsrs	r3, r0, #5
 80002d6:	428b      	cmp	r3, r1
 80002d8:	d301      	bcc.n	80002de <__divsi3+0xc6>
 80002da:	014b      	lsls	r3, r1, #5
 80002dc:	1ac0      	subs	r0, r0, r3
 80002de:	4152      	adcs	r2, r2
 80002e0:	0903      	lsrs	r3, r0, #4
 80002e2:	428b      	cmp	r3, r1
 80002e4:	d301      	bcc.n	80002ea <__divsi3+0xd2>
 80002e6:	010b      	lsls	r3, r1, #4
 80002e8:	1ac0      	subs	r0, r0, r3
 80002ea:	4152      	adcs	r2, r2
 80002ec:	08c3      	lsrs	r3, r0, #3
 80002ee:	428b      	cmp	r3, r1
 80002f0:	d301      	bcc.n	80002f6 <__divsi3+0xde>
 80002f2:	00cb      	lsls	r3, r1, #3
 80002f4:	1ac0      	subs	r0, r0, r3
 80002f6:	4152      	adcs	r2, r2
 80002f8:	0883      	lsrs	r3, r0, #2
 80002fa:	428b      	cmp	r3, r1
 80002fc:	d301      	bcc.n	8000302 <__divsi3+0xea>
 80002fe:	008b      	lsls	r3, r1, #2
 8000300:	1ac0      	subs	r0, r0, r3
 8000302:	4152      	adcs	r2, r2
 8000304:	0843      	lsrs	r3, r0, #1
 8000306:	428b      	cmp	r3, r1
 8000308:	d301      	bcc.n	800030e <__divsi3+0xf6>
 800030a:	004b      	lsls	r3, r1, #1
 800030c:	1ac0      	subs	r0, r0, r3
 800030e:	4152      	adcs	r2, r2
 8000310:	1a41      	subs	r1, r0, r1
 8000312:	d200      	bcs.n	8000316 <__divsi3+0xfe>
 8000314:	4601      	mov	r1, r0
 8000316:	4152      	adcs	r2, r2
 8000318:	4610      	mov	r0, r2
 800031a:	4770      	bx	lr
 800031c:	e05d      	b.n	80003da <__divsi3+0x1c2>
 800031e:	0fca      	lsrs	r2, r1, #31
 8000320:	d000      	beq.n	8000324 <__divsi3+0x10c>
 8000322:	4249      	negs	r1, r1
 8000324:	1003      	asrs	r3, r0, #32
 8000326:	d300      	bcc.n	800032a <__divsi3+0x112>
 8000328:	4240      	negs	r0, r0
 800032a:	4053      	eors	r3, r2
 800032c:	2200      	movs	r2, #0
 800032e:	469c      	mov	ip, r3
 8000330:	0903      	lsrs	r3, r0, #4
 8000332:	428b      	cmp	r3, r1
 8000334:	d32d      	bcc.n	8000392 <__divsi3+0x17a>
 8000336:	0a03      	lsrs	r3, r0, #8
 8000338:	428b      	cmp	r3, r1
 800033a:	d312      	bcc.n	8000362 <__divsi3+0x14a>
 800033c:	22fc      	movs	r2, #252	; 0xfc
 800033e:	0189      	lsls	r1, r1, #6
 8000340:	ba12      	rev	r2, r2
 8000342:	0a03      	lsrs	r3, r0, #8
 8000344:	428b      	cmp	r3, r1
 8000346:	d30c      	bcc.n	8000362 <__divsi3+0x14a>
 8000348:	0189      	lsls	r1, r1, #6
 800034a:	1192      	asrs	r2, r2, #6
 800034c:	428b      	cmp	r3, r1
 800034e:	d308      	bcc.n	8000362 <__divsi3+0x14a>
 8000350:	0189      	lsls	r1, r1, #6
 8000352:	1192      	asrs	r2, r2, #6
 8000354:	428b      	cmp	r3, r1
 8000356:	d304      	bcc.n	8000362 <__divsi3+0x14a>
 8000358:	0189      	lsls	r1, r1, #6
 800035a:	d03a      	beq.n	80003d2 <__divsi3+0x1ba>
 800035c:	1192      	asrs	r2, r2, #6
 800035e:	e000      	b.n	8000362 <__divsi3+0x14a>
 8000360:	0989      	lsrs	r1, r1, #6
 8000362:	09c3      	lsrs	r3, r0, #7
 8000364:	428b      	cmp	r3, r1
 8000366:	d301      	bcc.n	800036c <__divsi3+0x154>
 8000368:	01cb      	lsls	r3, r1, #7
 800036a:	1ac0      	subs	r0, r0, r3
 800036c:	4152      	adcs	r2, r2
 800036e:	0983      	lsrs	r3, r0, #6
 8000370:	428b      	cmp	r3, r1
 8000372:	d301      	bcc.n	8000378 <__divsi3+0x160>
 8000374:	018b      	lsls	r3, r1, #6
 8000376:	1ac0      	subs	r0, r0, r3
 8000378:	4152      	adcs	r2, r2
 800037a:	0943      	lsrs	r3, r0, #5
 800037c:	428b      	cmp	r3, r1
 800037e:	d301      	bcc.n	8000384 <__divsi3+0x16c>
 8000380:	014b      	lsls	r3, r1, #5
 8000382:	1ac0      	subs	r0, r0, r3
 8000384:	4152      	adcs	r2, r2
 8000386:	0903      	lsrs	r3, r0, #4
 8000388:	428b      	cmp	r3, r1
 800038a:	d301      	bcc.n	8000390 <__divsi3+0x178>
 800038c:	010b      	lsls	r3, r1, #4
 800038e:	1ac0      	subs	r0, r0, r3
 8000390:	4152      	adcs	r2, r2
 8000392:	08c3      	lsrs	r3, r0, #3
 8000394:	428b      	cmp	r3, r1
 8000396:	d301      	bcc.n	800039c <__divsi3+0x184>
 8000398:	00cb      	lsls	r3, r1, #3
 800039a:	1ac0      	subs	r0, r0, r3
 800039c:	4152      	adcs	r2, r2
 800039e:	0883      	lsrs	r3, r0, #2
 80003a0:	428b      	cmp	r3, r1
 80003a2:	d301      	bcc.n	80003a8 <__divsi3+0x190>
 80003a4:	008b      	lsls	r3, r1, #2
 80003a6:	1ac0      	subs	r0, r0, r3
 80003a8:	4152      	adcs	r2, r2
 80003aa:	d2d9      	bcs.n	8000360 <__divsi3+0x148>
 80003ac:	0843      	lsrs	r3, r0, #1
 80003ae:	428b      	cmp	r3, r1
 80003b0:	d301      	bcc.n	80003b6 <__divsi3+0x19e>
 80003b2:	004b      	lsls	r3, r1, #1
 80003b4:	1ac0      	subs	r0, r0, r3
 80003b6:	4152      	adcs	r2, r2
 80003b8:	1a41      	subs	r1, r0, r1
 80003ba:	d200      	bcs.n	80003be <__divsi3+0x1a6>
 80003bc:	4601      	mov	r1, r0
 80003be:	4663      	mov	r3, ip
 80003c0:	4152      	adcs	r2, r2
 80003c2:	105b      	asrs	r3, r3, #1
 80003c4:	4610      	mov	r0, r2
 80003c6:	d301      	bcc.n	80003cc <__divsi3+0x1b4>
 80003c8:	4240      	negs	r0, r0
 80003ca:	2b00      	cmp	r3, #0
 80003cc:	d500      	bpl.n	80003d0 <__divsi3+0x1b8>
 80003ce:	4249      	negs	r1, r1
 80003d0:	4770      	bx	lr
 80003d2:	4663      	mov	r3, ip
 80003d4:	105b      	asrs	r3, r3, #1
 80003d6:	d300      	bcc.n	80003da <__divsi3+0x1c2>
 80003d8:	4240      	negs	r0, r0
 80003da:	b501      	push	{r0, lr}
 80003dc:	2000      	movs	r0, #0
 80003de:	f000 f805 	bl	80003ec <__aeabi_idiv0>
 80003e2:	bd02      	pop	{r1, pc}

080003e4 <__aeabi_idivmod>:
 80003e4:	2900      	cmp	r1, #0
 80003e6:	d0f8      	beq.n	80003da <__divsi3+0x1c2>
 80003e8:	e716      	b.n	8000218 <__divsi3>
 80003ea:	4770      	bx	lr

080003ec <__aeabi_idiv0>:
 80003ec:	4770      	bx	lr
 80003ee:	46c0      	nop			; (mov r8, r8)

080003f0 <__aeabi_uldivmod>:
 80003f0:	2b00      	cmp	r3, #0
 80003f2:	d111      	bne.n	8000418 <__aeabi_uldivmod+0x28>
 80003f4:	2a00      	cmp	r2, #0
 80003f6:	d10f      	bne.n	8000418 <__aeabi_uldivmod+0x28>
 80003f8:	2900      	cmp	r1, #0
 80003fa:	d100      	bne.n	80003fe <__aeabi_uldivmod+0xe>
 80003fc:	2800      	cmp	r0, #0
 80003fe:	d002      	beq.n	8000406 <__aeabi_uldivmod+0x16>
 8000400:	2100      	movs	r1, #0
 8000402:	43c9      	mvns	r1, r1
 8000404:	0008      	movs	r0, r1
 8000406:	b407      	push	{r0, r1, r2}
 8000408:	4802      	ldr	r0, [pc, #8]	; (8000414 <__aeabi_uldivmod+0x24>)
 800040a:	a102      	add	r1, pc, #8	; (adr r1, 8000414 <__aeabi_uldivmod+0x24>)
 800040c:	1840      	adds	r0, r0, r1
 800040e:	9002      	str	r0, [sp, #8]
 8000410:	bd03      	pop	{r0, r1, pc}
 8000412:	46c0      	nop			; (mov r8, r8)
 8000414:	ffffffd9 	.word	0xffffffd9
 8000418:	b403      	push	{r0, r1}
 800041a:	4668      	mov	r0, sp
 800041c:	b501      	push	{r0, lr}
 800041e:	9802      	ldr	r0, [sp, #8]
 8000420:	f000 f806 	bl	8000430 <__udivmoddi4>
 8000424:	9b01      	ldr	r3, [sp, #4]
 8000426:	469e      	mov	lr, r3
 8000428:	b002      	add	sp, #8
 800042a:	bc0c      	pop	{r2, r3}
 800042c:	4770      	bx	lr
 800042e:	46c0      	nop			; (mov r8, r8)

08000430 <__udivmoddi4>:
 8000430:	b5f0      	push	{r4, r5, r6, r7, lr}
 8000432:	4657      	mov	r7, sl
 8000434:	464e      	mov	r6, r9
 8000436:	4645      	mov	r5, r8
 8000438:	46de      	mov	lr, fp
 800043a:	b5e0      	push	{r5, r6, r7, lr}
 800043c:	0004      	movs	r4, r0
 800043e:	000d      	movs	r5, r1
 8000440:	4692      	mov	sl, r2
 8000442:	4699      	mov	r9, r3
 8000444:	b083      	sub	sp, #12
 8000446:	428b      	cmp	r3, r1
 8000448:	d830      	bhi.n	80004ac <__udivmoddi4+0x7c>
 800044a:	d02d      	beq.n	80004a8 <__udivmoddi4+0x78>
 800044c:	4649      	mov	r1, r9
 800044e:	4650      	mov	r0, sl
 8000450:	f000 f8d8 	bl	8000604 <__clzdi2>
 8000454:	0029      	movs	r1, r5
 8000456:	0006      	movs	r6, r0
 8000458:	0020      	movs	r0, r4
 800045a:	f000 f8d3 	bl	8000604 <__clzdi2>
 800045e:	1a33      	subs	r3, r6, r0
 8000460:	4698      	mov	r8, r3
 8000462:	3b20      	subs	r3, #32
 8000464:	469b      	mov	fp, r3
 8000466:	d433      	bmi.n	80004d0 <__udivmoddi4+0xa0>
 8000468:	465a      	mov	r2, fp
 800046a:	4653      	mov	r3, sl
 800046c:	4093      	lsls	r3, r2
 800046e:	4642      	mov	r2, r8
 8000470:	001f      	movs	r7, r3
 8000472:	4653      	mov	r3, sl
 8000474:	4093      	lsls	r3, r2
 8000476:	001e      	movs	r6, r3
 8000478:	42af      	cmp	r7, r5
 800047a:	d83a      	bhi.n	80004f2 <__udivmoddi4+0xc2>
 800047c:	42af      	cmp	r7, r5
 800047e:	d100      	bne.n	8000482 <__udivmoddi4+0x52>
 8000480:	e078      	b.n	8000574 <__udivmoddi4+0x144>
 8000482:	465b      	mov	r3, fp
 8000484:	1ba4      	subs	r4, r4, r6
 8000486:	41bd      	sbcs	r5, r7
 8000488:	2b00      	cmp	r3, #0
 800048a:	da00      	bge.n	800048e <__udivmoddi4+0x5e>
 800048c:	e075      	b.n	800057a <__udivmoddi4+0x14a>
 800048e:	2200      	movs	r2, #0
 8000490:	2300      	movs	r3, #0
 8000492:	9200      	str	r2, [sp, #0]
 8000494:	9301      	str	r3, [sp, #4]
 8000496:	2301      	movs	r3, #1
 8000498:	465a      	mov	r2, fp
 800049a:	4093      	lsls	r3, r2
 800049c:	9301      	str	r3, [sp, #4]
 800049e:	2301      	movs	r3, #1
 80004a0:	4642      	mov	r2, r8
 80004a2:	4093      	lsls	r3, r2
 80004a4:	9300      	str	r3, [sp, #0]
 80004a6:	e028      	b.n	80004fa <__udivmoddi4+0xca>
 80004a8:	4282      	cmp	r2, r0
 80004aa:	d9cf      	bls.n	800044c <__udivmoddi4+0x1c>
 80004ac:	2200      	movs	r2, #0
 80004ae:	2300      	movs	r3, #0
 80004b0:	9200      	str	r2, [sp, #0]
 80004b2:	9301      	str	r3, [sp, #4]
 80004b4:	9b0c      	ldr	r3, [sp, #48]	; 0x30
 80004b6:	2b00      	cmp	r3, #0
 80004b8:	d001      	beq.n	80004be <__udivmoddi4+0x8e>
 80004ba:	601c      	str	r4, [r3, #0]
 80004bc:	605d      	str	r5, [r3, #4]
 80004be:	9800      	ldr	r0, [sp, #0]
 80004c0:	9901      	ldr	r1, [sp, #4]
 80004c2:	b003      	add	sp, #12
 80004c4:	bcf0      	pop	{r4, r5, r6, r7}
 80004c6:	46bb      	mov	fp, r7
 80004c8:	46b2      	mov	sl, r6
 80004ca:	46a9      	mov	r9, r5
 80004cc:	46a0      	mov	r8, r4
 80004ce:	bdf0      	pop	{r4, r5, r6, r7, pc}
 80004d0:	4642      	mov	r2, r8
 80004d2:	2320      	movs	r3, #32
 80004d4:	1a9b      	subs	r3, r3, r2
 80004d6:	4652      	mov	r2, sl
 80004d8:	40da      	lsrs	r2, r3
 80004da:	4641      	mov	r1, r8
 80004dc:	0013      	movs	r3, r2
 80004de:	464a      	mov	r2, r9
 80004e0:	408a      	lsls	r2, r1
 80004e2:	0017      	movs	r7, r2
 80004e4:	4642      	mov	r2, r8
 80004e6:	431f      	orrs	r7, r3
 80004e8:	4653      	mov	r3, sl
 80004ea:	4093      	lsls	r3, r2
 80004ec:	001e      	movs	r6, r3
 80004ee:	42af      	cmp	r7, r5
 80004f0:	d9c4      	bls.n	800047c <__udivmoddi4+0x4c>
 80004f2:	2200      	movs	r2, #0
 80004f4:	2300      	movs	r3, #0
 80004f6:	9200      	str	r2, [sp, #0]
 80004f8:	9301      	str	r3, [sp, #4]
 80004fa:	4643      	mov	r3, r8
 80004fc:	2b00      	cmp	r3, #0
 80004fe:	d0d9      	beq.n	80004b4 <__udivmoddi4+0x84>
 8000500:	07fb      	lsls	r3, r7, #31
 8000502:	0872      	lsrs	r2, r6, #1
 8000504:	431a      	orrs	r2, r3
 8000506:	4646      	mov	r6, r8
 8000508:	087b      	lsrs	r3, r7, #1
 800050a:	e00e      	b.n	800052a <__udivmoddi4+0xfa>
 800050c:	42ab      	cmp	r3, r5
 800050e:	d101      	bne.n	8000514 <__udivmoddi4+0xe4>
 8000510:	42a2      	cmp	r2, r4
 8000512:	d80c      	bhi.n	800052e <__udivmoddi4+0xfe>
 8000514:	1aa4      	subs	r4, r4, r2
 8000516:	419d      	sbcs	r5, r3
 8000518:	2001      	movs	r0, #1
 800051a:	1924      	adds	r4, r4, r4
 800051c:	416d      	adcs	r5, r5
 800051e:	2100      	movs	r1, #0
 8000520:	3e01      	subs	r6, #1
 8000522:	1824      	adds	r4, r4, r0
 8000524:	414d      	adcs	r5, r1
 8000526:	2e00      	cmp	r6, #0
 8000528:	d006      	beq.n	8000538 <__udivmoddi4+0x108>
 800052a:	42ab      	cmp	r3, r5
 800052c:	d9ee      	bls.n	800050c <__udivmoddi4+0xdc>
 800052e:	3e01      	subs	r6, #1
 8000530:	1924      	adds	r4, r4, r4
 8000532:	416d      	adcs	r5, r5
 8000534:	2e00      	cmp	r6, #0
 8000536:	d1f8      	bne.n	800052a <__udivmoddi4+0xfa>
 8000538:	9800      	ldr	r0, [sp, #0]
 800053a:	9901      	ldr	r1, [sp, #4]
 800053c:	465b      	mov	r3, fp
 800053e:	1900      	adds	r0, r0, r4
 8000540:	4169      	adcs	r1, r5
 8000542:	2b00      	cmp	r3, #0
 8000544:	db24      	blt.n	8000590 <__udivmoddi4+0x160>
 8000546:	002b      	movs	r3, r5
 8000548:	465a      	mov	r2, fp
 800054a:	4644      	mov	r4, r8
 800054c:	40d3      	lsrs	r3, r2
 800054e:	002a      	movs	r2, r5
 8000550:	40e2      	lsrs	r2, r4
 8000552:	001c      	movs	r4, r3
 8000554:	465b      	mov	r3, fp
 8000556:	0015      	movs	r5, r2
 8000558:	2b00      	cmp	r3, #0
 800055a:	db2a      	blt.n	80005b2 <__udivmoddi4+0x182>
 800055c:	0026      	movs	r6, r4
 800055e:	409e      	lsls	r6, r3
 8000560:	0033      	movs	r3, r6
 8000562:	0026      	movs	r6, r4
 8000564:	4647      	mov	r7, r8
 8000566:	40be      	lsls	r6, r7
 8000568:	0032      	movs	r2, r6
 800056a:	1a80      	subs	r0, r0, r2
 800056c:	4199      	sbcs	r1, r3
 800056e:	9000      	str	r0, [sp, #0]
 8000570:	9101      	str	r1, [sp, #4]
 8000572:	e79f      	b.n	80004b4 <__udivmoddi4+0x84>
 8000574:	42a3      	cmp	r3, r4
 8000576:	d8bc      	bhi.n	80004f2 <__udivmoddi4+0xc2>
 8000578:	e783      	b.n	8000482 <__udivmoddi4+0x52>
 800057a:	4642      	mov	r2, r8
 800057c:	2320      	movs	r3, #32
 800057e:	2100      	movs	r1, #0
 8000580:	1a9b      	subs	r3, r3, r2
 8000582:	2200      	movs	r2, #0
 8000584:	9100      	str	r1, [sp, #0]
 8000586:	9201      	str	r2, [sp, #4]
 8000588:	2201      	movs	r2, #1
 800058a:	40da      	lsrs	r2, r3
 800058c:	9201      	str	r2, [sp, #4]
 800058e:	e786      	b.n	800049e <__udivmoddi4+0x6e>
 8000590:	4642      	mov	r2, r8
 8000592:	2320      	movs	r3, #32
 8000594:	1a9b      	subs	r3, r3, r2
 8000596:	002a      	movs	r2, r5
 8000598:	4646      	mov	r6, r8
 800059a:	409a      	lsls	r2, r3
 800059c:	0023      	movs	r3, r4
 800059e:	40f3      	lsrs	r3, r6
 80005a0:	4644      	mov	r4, r8
 80005a2:	4313      	orrs	r3, r2
 80005a4:	002a      	movs	r2, r5
 80005a6:	40e2      	lsrs	r2, r4
 80005a8:	001c      	movs	r4, r3
 80005aa:	465b      	mov	r3, fp
 80005ac:	0015      	movs	r5, r2
 80005ae:	2b00      	cmp	r3, #0
 80005b0:	dad4      	bge.n	800055c <__udivmoddi4+0x12c>
 80005b2:	4642      	mov	r2, r8
 80005b4:	002f      	movs	r7, r5
 80005b6:	2320      	movs	r3, #32
 80005b8:	0026      	movs	r6, r4
 80005ba:	4097      	lsls	r7, r2
 80005bc:	1a9b      	subs	r3, r3, r2
 80005be:	40de      	lsrs	r6, r3
 80005c0:	003b      	movs	r3, r7
 80005c2:	4333      	orrs	r3, r6
 80005c4:	e7cd      	b.n	8000562 <__udivmoddi4+0x132>
 80005c6:	46c0      	nop			; (mov r8, r8)

080005c8 <__clzsi2>:
 80005c8:	211c      	movs	r1, #28
 80005ca:	2301      	movs	r3, #1
 80005cc:	041b      	lsls	r3, r3, #16
 80005ce:	4298      	cmp	r0, r3
 80005d0:	d301      	bcc.n	80005d6 <__clzsi2+0xe>
 80005d2:	0c00      	lsrs	r0, r0, #16
 80005d4:	3910      	subs	r1, #16
 80005d6:	0a1b      	lsrs	r3, r3, #8
 80005d8:	4298      	cmp	r0, r3
 80005da:	d301      	bcc.n	80005e0 <__clzsi2+0x18>
 80005dc:	0a00      	lsrs	r0, r0, #8
 80005de:	3908      	subs	r1, #8
 80005e0:	091b      	lsrs	r3, r3, #4
 80005e2:	4298      	cmp	r0, r3
 80005e4:	d301      	bcc.n	80005ea <__clzsi2+0x22>
 80005e6:	0900      	lsrs	r0, r0, #4
 80005e8:	3904      	subs	r1, #4
 80005ea:	a202      	add	r2, pc, #8	; (adr r2, 80005f4 <__clzsi2+0x2c>)
 80005ec:	5c10      	ldrb	r0, [r2, r0]
 80005ee:	1840      	adds	r0, r0, r1
 80005f0:	4770      	bx	lr
 80005f2:	46c0      	nop			; (mov r8, r8)
 80005f4:	02020304 	.word	0x02020304
 80005f8:	01010101 	.word	0x01010101
	...

08000604 <__clzdi2>:
 8000604:	b510      	push	{r4, lr}
 8000606:	2900      	cmp	r1, #0
 8000608:	d103      	bne.n	8000612 <__clzdi2+0xe>
 800060a:	f7ff ffdd 	bl	80005c8 <__clzsi2>
 800060e:	3020      	adds	r0, #32
 8000610:	e002      	b.n	8000618 <__clzdi2+0x14>
 8000612:	0008      	movs	r0, r1
 8000614:	f7ff ffd8 	bl	80005c8 <__clzsi2>
 8000618:	bd10      	pop	{r4, pc}
 800061a:	46c0      	nop			; (mov r8, r8)

0800061c <mpu_write>:
 800061c:	23fa      	movs	r3, #250	; 0xfa
 800061e:	b500      	push	{lr}
 8000620:	009b      	lsls	r3, r3, #2
 8000622:	b085      	sub	sp, #20
 8000624:	9302      	str	r3, [sp, #8]
 8000626:	2301      	movs	r3, #1
 8000628:	9200      	str	r2, [sp, #0]
 800062a:	9301      	str	r3, [sp, #4]
 800062c:	000a      	movs	r2, r1
 800062e:	0001      	movs	r1, r0
 8000630:	4803      	ldr	r0, [pc, #12]	; (8000640 <mpu_write+0x24>)
 8000632:	f000 fee9 	bl	8001408 <HAL_I2C_Mem_Write>
 8000636:	1e43      	subs	r3, r0, #1
 8000638:	4198      	sbcs	r0, r3
 800063a:	4240      	negs	r0, r0
 800063c:	b005      	add	sp, #20
 800063e:	bd00      	pop	{pc}
 8000640:	20000028 	.word	0x20000028

08000644 <mpu_read>:
 8000644:	b510      	push	{r4, lr}
 8000646:	24fa      	movs	r4, #250	; 0xfa
 8000648:	b084      	sub	sp, #16
 800064a:	00a4      	lsls	r4, r4, #2
 800064c:	9301      	str	r3, [sp, #4]
 800064e:	9200      	str	r2, [sp, #0]
 8000650:	2301      	movs	r3, #1
 8000652:	000a      	movs	r2, r1
 8000654:	9402      	str	r4, [sp, #8]
 8000656:	0001      	movs	r1, r0
 8000658:	4804      	ldr	r0, [pc, #16]	; (800066c <mpu_read+0x28>)
 800065a:	f001 f807 	bl	800166c <HAL_I2C_Mem_Read>
 800065e:	4243      	negs	r3, r0
 8000660:	4158      	adcs	r0, r3
 8000662:	0040      	lsls	r0, r0, #1
 8000664:	3802      	subs	r0, #2
 8000666:	b004      	add	sp, #16
 8000668:	bd10      	pop	{r4, pc}
 800066a:	46c0      	nop			; (mov r8, r8)
 800066c:	20000028 	.word	0x20000028

08000670 <SystemClock_Config>:
 8000670:	b500      	push	{lr}
 8000672:	b093      	sub	sp, #76	; 0x4c
 8000674:	2238      	movs	r2, #56	; 0x38
 8000676:	2100      	movs	r1, #0
 8000678:	a804      	add	r0, sp, #16
 800067a:	f002 f9cb 	bl	8002a14 <memset>
 800067e:	2210      	movs	r2, #16
 8000680:	2100      	movs	r1, #0
 8000682:	4668      	mov	r0, sp
 8000684:	f002 f9c6 	bl	8002a14 <memset>
 8000688:	2080      	movs	r0, #128	; 0x80
 800068a:	0080      	lsls	r0, r0, #2
 800068c:	f001 f986 	bl	800199c <HAL_PWREx_ControlVoltageScaling>
 8000690:	2302      	movs	r3, #2
 8000692:	9304      	str	r3, [sp, #16]
 8000694:	33fe      	adds	r3, #254	; 0xfe
 8000696:	2240      	movs	r2, #64	; 0x40
 8000698:	9307      	str	r3, [sp, #28]
 800069a:	2300      	movs	r3, #0
 800069c:	a804      	add	r0, sp, #16
 800069e:	9308      	str	r3, [sp, #32]
 80006a0:	9209      	str	r2, [sp, #36]	; 0x24
 80006a2:	930b      	str	r3, [sp, #44]	; 0x2c
 80006a4:	f001 f9aa 	bl	80019fc <HAL_RCC_OscConfig>
 80006a8:	2800      	cmp	r0, #0
 80006aa:	d001      	beq.n	80006b0 <SystemClock_Config+0x40>
 80006ac:	b672      	cpsid	i
 80006ae:	e7fe      	b.n	80006ae <SystemClock_Config+0x3e>
 80006b0:	2207      	movs	r2, #7
 80006b2:	2300      	movs	r3, #0
 80006b4:	9200      	str	r2, [sp, #0]
 80006b6:	9301      	str	r3, [sp, #4]
 80006b8:	2200      	movs	r2, #0
 80006ba:	2300      	movs	r3, #0
 80006bc:	2100      	movs	r1, #0
 80006be:	4668      	mov	r0, sp
 80006c0:	9202      	str	r2, [sp, #8]
 80006c2:	9303      	str	r3, [sp, #12]
 80006c4:	f001 fc54 	bl	8001f70 <HAL_RCC_ClockConfig>
 80006c8:	2800      	cmp	r0, #0
 80006ca:	d001      	beq.n	80006d0 <SystemClock_Config+0x60>
 80006cc:	b672      	cpsid	i
 80006ce:	e7fe      	b.n	80006ce <SystemClock_Config+0x5e>
 80006d0:	b013      	add	sp, #76	; 0x4c
 80006d2:	bd00      	pop	{pc}

080006d4 <main>:
 80006d4:	b5f0      	push	{r4, r5, r6, r7, lr}
 80006d6:	b08f      	sub	sp, #60	; 0x3c
 80006d8:	ae04      	add	r6, sp, #16
 80006da:	f000 faed 	bl	8000cb8 <HAL_Init>
 80006de:	0032      	movs	r2, r6
 80006e0:	4b4e      	ldr	r3, [pc, #312]	; (800081c <main+0x148>)
 80006e2:	2500      	movs	r5, #0
 80006e4:	cb03      	ldmia	r3!, {r0, r1}
 80006e6:	c203      	stmia	r2!, {r0, r1}
 80006e8:	23d2      	movs	r3, #210	; 0xd2
 80006ea:	7233      	strb	r3, [r6, #8]
 80006ec:	3bba      	subs	r3, #186	; 0xba
 80006ee:	81b3      	strh	r3, [r6, #12]
 80006f0:	8175      	strh	r5, [r6, #10]
 80006f2:	f7ff ffbd 	bl	8000670 <SystemClock_Config>
 80006f6:	2214      	movs	r2, #20
 80006f8:	2100      	movs	r1, #0
 80006fa:	a808      	add	r0, sp, #32
 80006fc:	f002 f98a 	bl	8002a14 <memset>
 8000700:	2204      	movs	r2, #4
 8000702:	4b47      	ldr	r3, [pc, #284]	; (8000820 <main+0x14c>)
 8000704:	2701      	movs	r7, #1
 8000706:	6b59      	ldr	r1, [r3, #52]	; 0x34
 8000708:	20a0      	movs	r0, #160	; 0xa0
 800070a:	4311      	orrs	r1, r2
 800070c:	6359      	str	r1, [r3, #52]	; 0x34
 800070e:	6b59      	ldr	r1, [r3, #52]	; 0x34
 8000710:	05c0      	lsls	r0, r0, #23
 8000712:	400a      	ands	r2, r1
 8000714:	9201      	str	r2, [sp, #4]
 8000716:	9a01      	ldr	r2, [sp, #4]
 8000718:	2220      	movs	r2, #32
 800071a:	6b59      	ldr	r1, [r3, #52]	; 0x34
 800071c:	4311      	orrs	r1, r2
 800071e:	6359      	str	r1, [r3, #52]	; 0x34
 8000720:	6b59      	ldr	r1, [r3, #52]	; 0x34
 8000722:	400a      	ands	r2, r1
 8000724:	9202      	str	r2, [sp, #8]
 8000726:	9a02      	ldr	r2, [sp, #8]
 8000728:	6b5a      	ldr	r2, [r3, #52]	; 0x34
 800072a:	2120      	movs	r1, #32
 800072c:	433a      	orrs	r2, r7
 800072e:	635a      	str	r2, [r3, #52]	; 0x34
 8000730:	6b5b      	ldr	r3, [r3, #52]	; 0x34
 8000732:	2200      	movs	r2, #0
 8000734:	403b      	ands	r3, r7
 8000736:	9303      	str	r3, [sp, #12]
 8000738:	9b03      	ldr	r3, [sp, #12]
 800073a:	f000 fc49 	bl	8000fd0 <HAL_GPIO_WritePin>
 800073e:	2220      	movs	r2, #32
 8000740:	2301      	movs	r3, #1
 8000742:	20a0      	movs	r0, #160	; 0xa0
 8000744:	9208      	str	r2, [sp, #32]
 8000746:	9309      	str	r3, [sp, #36]	; 0x24
 8000748:	2302      	movs	r3, #2
 800074a:	2200      	movs	r2, #0
 800074c:	05c0      	lsls	r0, r0, #23
 800074e:	a908      	add	r1, sp, #32
 8000750:	920a      	str	r2, [sp, #40]	; 0x28
 8000752:	930b      	str	r3, [sp, #44]	; 0x2c
 8000754:	f000 fb2e 	bl	8000db4 <HAL_GPIO_Init>
 8000758:	4c32      	ldr	r4, [pc, #200]	; (8000824 <main+0x150>)
 800075a:	4b33      	ldr	r3, [pc, #204]	; (8000828 <main+0x154>)
 800075c:	0020      	movs	r0, r4
 800075e:	6023      	str	r3, [r4, #0]
 8000760:	23e1      	movs	r3, #225	; 0xe1
 8000762:	025b      	lsls	r3, r3, #9
 8000764:	6063      	str	r3, [r4, #4]
 8000766:	230c      	movs	r3, #12
 8000768:	60a5      	str	r5, [r4, #8]
 800076a:	60e5      	str	r5, [r4, #12]
 800076c:	6125      	str	r5, [r4, #16]
 800076e:	6163      	str	r3, [r4, #20]
 8000770:	61a5      	str	r5, [r4, #24]
 8000772:	61e5      	str	r5, [r4, #28]
 8000774:	6225      	str	r5, [r4, #32]
 8000776:	6265      	str	r5, [r4, #36]	; 0x24
 8000778:	62a5      	str	r5, [r4, #40]	; 0x28
 800077a:	f001 fffd 	bl	8002778 <HAL_UART_Init>
 800077e:	2800      	cmp	r0, #0
 8000780:	d001      	beq.n	8000786 <main+0xb2>
 8000782:	b672      	cpsid	i
 8000784:	e7fe      	b.n	8000784 <main+0xb0>
 8000786:	2100      	movs	r1, #0
 8000788:	0020      	movs	r0, r4
 800078a:	f002 f87d 	bl	8002888 <HAL_UARTEx_SetTxFifoThreshold>
 800078e:	1e01      	subs	r1, r0, #0
 8000790:	d001      	beq.n	8000796 <main+0xc2>
 8000792:	b672      	cpsid	i
 8000794:	e7fe      	b.n	8000794 <main+0xc0>
 8000796:	0020      	movs	r0, r4
 8000798:	f002 f8c6 	bl	8002928 <HAL_UARTEx_SetRxFifoThreshold>
 800079c:	2800      	cmp	r0, #0
 800079e:	d001      	beq.n	80007a4 <main+0xd0>
 80007a0:	b672      	cpsid	i
 80007a2:	e7fe      	b.n	80007a2 <main+0xce>
 80007a4:	0020      	movs	r0, r4
 80007a6:	f002 f853 	bl	8002850 <HAL_UARTEx_DisableFifoMode>
 80007aa:	2800      	cmp	r0, #0
 80007ac:	d001      	beq.n	80007b2 <main+0xde>
 80007ae:	b672      	cpsid	i
 80007b0:	e7fe      	b.n	80007b0 <main+0xdc>
 80007b2:	4c1e      	ldr	r4, [pc, #120]	; (800082c <main+0x158>)
 80007b4:	4b1e      	ldr	r3, [pc, #120]	; (8000830 <main+0x15c>)
 80007b6:	60a0      	str	r0, [r4, #8]
 80007b8:	6023      	str	r3, [r4, #0]
 80007ba:	4b1e      	ldr	r3, [pc, #120]	; (8000834 <main+0x160>)
 80007bc:	6120      	str	r0, [r4, #16]
 80007be:	6160      	str	r0, [r4, #20]
 80007c0:	61a0      	str	r0, [r4, #24]
 80007c2:	61e0      	str	r0, [r4, #28]
 80007c4:	6220      	str	r0, [r4, #32]
 80007c6:	0020      	movs	r0, r4
 80007c8:	6063      	str	r3, [r4, #4]
 80007ca:	60e7      	str	r7, [r4, #12]
 80007cc:	f000 fdc2 	bl	8001354 <HAL_I2C_Init>
 80007d0:	1e01      	subs	r1, r0, #0
 80007d2:	d001      	beq.n	80007d8 <main+0x104>
 80007d4:	b672      	cpsid	i
 80007d6:	e7fe      	b.n	80007d6 <main+0x102>
 80007d8:	0020      	movs	r0, r4
 80007da:	f001 f891 	bl	8001900 <HAL_I2CEx_ConfigAnalogFilter>
 80007de:	1e01      	subs	r1, r0, #0
 80007e0:	d001      	beq.n	80007e6 <main+0x112>
 80007e2:	b672      	cpsid	i
 80007e4:	e7fe      	b.n	80007e4 <main+0x110>
 80007e6:	0020      	movs	r0, r4
 80007e8:	f001 f8b2 	bl	8001950 <HAL_I2CEx_ConfigDigitalFilter>
 80007ec:	2800      	cmp	r0, #0
 80007ee:	d001      	beq.n	80007f4 <main+0x120>
 80007f0:	b672      	cpsid	i
 80007f2:	e7fe      	b.n	80007f2 <main+0x11e>
 80007f4:	0030      	movs	r0, r6
 80007f6:	f000 f8a1 	bl	800093c <MpuInitialize>
 80007fa:	4f0f      	ldr	r7, [pc, #60]	; (8000838 <main+0x164>)
 80007fc:	4d0f      	ldr	r5, [pc, #60]	; (800083c <main+0x168>)
 80007fe:	4c10      	ldr	r4, [pc, #64]	; (8000840 <main+0x16c>)
 8000800:	0030      	movs	r0, r6
 8000802:	f000 f82f 	bl	8000864 <MpuReadAccelXRaw>
 8000806:	8038      	strh	r0, [r7, #0]
 8000808:	0030      	movs	r0, r6
 800080a:	f000 f84f 	bl	80008ac <MpuReadAccelYRaw>
 800080e:	8028      	strh	r0, [r5, #0]
 8000810:	0030      	movs	r0, r6
 8000812:	f000 f86f 	bl	80008f4 <MpuReadAccelZRaw>
 8000816:	8020      	strh	r0, [r4, #0]
 8000818:	e7f2      	b.n	8000800 <main+0x12c>
 800081a:	46c0      	nop			; (mov r8, r8)
 800081c:	08002a3c 	.word	0x08002a3c
 8000820:	40021000 	.word	0x40021000
 8000824:	20000074 	.word	0x20000074
 8000828:	40004400 	.word	0x40004400
 800082c:	20000028 	.word	0x20000028
 8000830:	40005400 	.word	0x40005400
 8000834:	00303d5b 	.word	0x00303d5b
 8000838:	20000104 	.word	0x20000104
 800083c:	20000106 	.word	0x20000106
 8000840:	20000108 	.word	0x20000108

08000844 <MpuHandleErrors>:
 8000844:	2309      	movs	r3, #9
 8000846:	b510      	push	{r4, lr}
 8000848:	56c3      	ldrsb	r3, [r0, r3]
 800084a:	3303      	adds	r3, #3
 800084c:	d000      	beq.n	8000850 <MpuHandleErrors+0xc>
 800084e:	bd10      	pop	{r4, pc}
 8000850:	20a0      	movs	r0, #160	; 0xa0
 8000852:	2201      	movs	r2, #1
 8000854:	2120      	movs	r1, #32
 8000856:	05c0      	lsls	r0, r0, #23
 8000858:	f000 fbba 	bl	8000fd0 <HAL_GPIO_WritePin>
 800085c:	e7f7      	b.n	800084e <MpuHandleErrors+0xa>
 800085e:	46c0      	nop			; (mov r8, r8)

08000860 <Error_Handler>:
 8000860:	b672      	cpsid	i
 8000862:	e7fe      	b.n	8000862 <Error_Handler+0x2>

08000864 <MpuReadAccelXRaw>:
 8000864:	b530      	push	{r4, r5, lr}
 8000866:	b083      	sub	sp, #12
 8000868:	2300      	movs	r3, #0
 800086a:	466a      	mov	r2, sp
 800086c:	0004      	movs	r4, r0
 800086e:	8093      	strh	r3, [r2, #4]
 8000870:	70d3      	strb	r3, [r2, #3]
 8000872:	2175      	movs	r1, #117	; 0x75
 8000874:	2301      	movs	r3, #1
 8000876:	7a00      	ldrb	r0, [r0, #8]
 8000878:	6865      	ldr	r5, [r4, #4]
 800087a:	3203      	adds	r2, #3
 800087c:	47a8      	blx	r5
 800087e:	466b      	mov	r3, sp
 8000880:	78db      	ldrb	r3, [r3, #3]
 8000882:	7260      	strb	r0, [r4, #9]
 8000884:	2b68      	cmp	r3, #104	; 0x68
 8000886:	d10b      	bne.n	80008a0 <MpuReadAccelXRaw+0x3c>
 8000888:	213b      	movs	r1, #59	; 0x3b
 800088a:	7a20      	ldrb	r0, [r4, #8]
 800088c:	6865      	ldr	r5, [r4, #4]
 800088e:	3b66      	subs	r3, #102	; 0x66
 8000890:	aa01      	add	r2, sp, #4
 8000892:	47a8      	blx	r5
 8000894:	7260      	strb	r0, [r4, #9]
 8000896:	466b      	mov	r3, sp
 8000898:	8898      	ldrh	r0, [r3, #4]
 800089a:	bac0      	revsh	r0, r0
 800089c:	b003      	add	sp, #12
 800089e:	bd30      	pop	{r4, r5, pc}
 80008a0:	23fd      	movs	r3, #253	; 0xfd
 80008a2:	0020      	movs	r0, r4
 80008a4:	7263      	strb	r3, [r4, #9]
 80008a6:	f7ff ffcd 	bl	8000844 <MpuHandleErrors>
 80008aa:	e7f4      	b.n	8000896 <MpuReadAccelXRaw+0x32>

080008ac <MpuReadAccelYRaw>:
 80008ac:	b530      	push	{r4, r5, lr}
 80008ae:	b083      	sub	sp, #12
 80008b0:	2300      	movs	r3, #0
 80008b2:	466a      	mov	r2, sp
 80008b4:	0004      	movs	r4, r0
 80008b6:	8093      	strh	r3, [r2, #4]
 80008b8:	70d3      	strb	r3, [r2, #3]
 80008ba:	2175      	movs	r1, #117	; 0x75
 80008bc:	2301      	movs	r3, #1
 80008be:	7a00      	ldrb	r0, [r0, #8]
 80008c0:	6865      	ldr	r5, [r4, #4]
 80008c2:	3203      	adds	r2, #3
 80008c4:	47a8      	blx	r5
 80008c6:	466b      	mov	r3, sp
 80008c8:	78db      	ldrb	r3, [r3, #3]
 80008ca:	7260      	strb	r0, [r4, #9]
 80008cc:	2b68      	cmp	r3, #104	; 0x68
 80008ce:	d10b      	bne.n	80008e8 <MpuReadAccelYRaw+0x3c>
 80008d0:	213d      	movs	r1, #61	; 0x3d
 80008d2:	7a20      	ldrb	r0, [r4, #8]
 80008d4:	6865      	ldr	r5, [r4, #4]
 80008d6:	3b66      	subs	r3, #102	; 0x66
 80008d8:	aa01      	add	r2, sp, #4
 80008da:	47a8      	blx	r5
 80008dc:	7260      	strb	r0, [r4, #9]
 80008de:	466b      	mov	r3, sp
 80008e0:	8898      	ldrh	r0, [r3, #4]
 80008e2:	bac0      	revsh	r0, r0
 80008e4:	b003      	add	sp, #12
 80008e6:	bd30      	pop	{r4, r5, pc}
 80008e8:	23fd      	movs	r3, #253	; 0xfd
 80008ea:	0020      	movs	r0, r4
 80008ec:	7263      	strb	r3, [r4, #9]
 80008ee:	f7ff ffa9 	bl	8000844 <MpuHandleErrors>
 80008f2:	e7f4      	b.n	80008de <MpuReadAccelYRaw+0x32>

080008f4 <MpuReadAccelZRaw>:
 80008f4:	b530      	push	{r4, r5, lr}
 80008f6:	b083      	sub	sp, #12
 80008f8:	2300      	movs	r3, #0
 80008fa:	466a      	mov	r2, sp
 80008fc:	0004      	movs	r4, r0
 80008fe:	8093      	strh	r3, [r2, #4]
 8000900:	70d3      	strb	r3, [r2, #3]
 8000902:	2175      	movs	r1, #117	; 0x75
 8000904:	2301      	movs	r3, #1
 8000906:	7a00      	ldrb	r0, [r0, #8]
 8000908:	6865      	ldr	r5, [r4, #4]
 800090a:	3203      	adds	r2, #3
 800090c:	47a8      	blx	r5
 800090e:	466b      	mov	r3, sp
 8000910:	78db      	ldrb	r3, [r3, #3]
 8000912:	7260      	strb	r0, [r4, #9]
 8000914:	2b68      	cmp	r3, #104	; 0x68
 8000916:	d10b      	bne.n	8000930 <MpuReadAccelZRaw+0x3c>
 8000918:	213f      	movs	r1, #63	; 0x3f
 800091a:	7a20      	ldrb	r0, [r4, #8]
 800091c:	6865      	ldr	r5, [r4, #4]
 800091e:	3b66      	subs	r3, #102	; 0x66
 8000920:	aa01      	add	r2, sp, #4
 8000922:	47a8      	blx	r5
 8000924:	7260      	strb	r0, [r4, #9]
 8000926:	466b      	mov	r3, sp
 8000928:	8898      	ldrh	r0, [r3, #4]
 800092a:	bac0      	revsh	r0, r0
 800092c:	b003      	add	sp, #12
 800092e:	bd30      	pop	{r4, r5, pc}
 8000930:	23fd      	movs	r3, #253	; 0xfd
 8000932:	0020      	movs	r0, r4
 8000934:	7263      	strb	r3, [r4, #9]
 8000936:	f7ff ff85 	bl	8000844 <MpuHandleErrors>
 800093a:	e7f4      	b.n	8000926 <MpuReadAccelZRaw+0x32>

0800093c <MpuInitialize>:
 800093c:	b5f0      	push	{r4, r5, r6, r7, lr}
 800093e:	b083      	sub	sp, #12
 8000940:	466b      	mov	r3, sp
 8000942:	2600      	movs	r6, #0
 8000944:	0004      	movs	r4, r0
 8000946:	1ddd      	adds	r5, r3, #7
 8000948:	702e      	strb	r6, [r5, #0]
 800094a:	2301      	movs	r3, #1
 800094c:	002a      	movs	r2, r5
 800094e:	2175      	movs	r1, #117	; 0x75
 8000950:	7a00      	ldrb	r0, [r0, #8]
 8000952:	6867      	ldr	r7, [r4, #4]
 8000954:	47b8      	blx	r7
 8000956:	782b      	ldrb	r3, [r5, #0]
 8000958:	7260      	strb	r0, [r4, #9]
 800095a:	2b68      	cmp	r3, #104	; 0x68
 800095c:	d006      	beq.n	800096c <MpuInitialize+0x30>
 800095e:	23fd      	movs	r3, #253	; 0xfd
 8000960:	0020      	movs	r0, r4
 8000962:	7263      	strb	r3, [r4, #9]
 8000964:	f7ff ff6e 	bl	8000844 <MpuHandleErrors>
 8000968:	b003      	add	sp, #12
 800096a:	bdf0      	pop	{r4, r5, r6, r7, pc}
 800096c:	702e      	strb	r6, [r5, #0]
 800096e:	3b67      	subs	r3, #103	; 0x67
 8000970:	002a      	movs	r2, r5
 8000972:	2175      	movs	r1, #117	; 0x75
 8000974:	7a20      	ldrb	r0, [r4, #8]
 8000976:	6866      	ldr	r6, [r4, #4]
 8000978:	47b0      	blx	r6
 800097a:	782b      	ldrb	r3, [r5, #0]
 800097c:	7260      	strb	r0, [r4, #9]
 800097e:	2b68      	cmp	r3, #104	; 0x68
 8000980:	d176      	bne.n	8000a70 <MpuInitialize+0x134>
 8000982:	3318      	adds	r3, #24
 8000984:	702b      	strb	r3, [r5, #0]
 8000986:	002a      	movs	r2, r5
 8000988:	216b      	movs	r1, #107	; 0x6b
 800098a:	7a20      	ldrb	r0, [r4, #8]
 800098c:	6823      	ldr	r3, [r4, #0]
 800098e:	4798      	blx	r3
 8000990:	7260      	strb	r0, [r4, #9]
 8000992:	2300      	movs	r3, #0
 8000994:	7ae6      	ldrb	r6, [r4, #11]
 8000996:	702b      	strb	r3, [r5, #0]
 8000998:	002a      	movs	r2, r5
 800099a:	3301      	adds	r3, #1
 800099c:	2175      	movs	r1, #117	; 0x75
 800099e:	7a20      	ldrb	r0, [r4, #8]
 80009a0:	6867      	ldr	r7, [r4, #4]
 80009a2:	47b8      	blx	r7
 80009a4:	782b      	ldrb	r3, [r5, #0]
 80009a6:	7260      	strb	r0, [r4, #9]
 80009a8:	2b68      	cmp	r3, #104	; 0x68
 80009aa:	d17f      	bne.n	8000aac <MpuInitialize+0x170>
 80009ac:	702e      	strb	r6, [r5, #0]
 80009ae:	002a      	movs	r2, r5
 80009b0:	2119      	movs	r1, #25
 80009b2:	7a20      	ldrb	r0, [r4, #8]
 80009b4:	6823      	ldr	r3, [r4, #0]
 80009b6:	4798      	blx	r3
 80009b8:	7260      	strb	r0, [r4, #9]
 80009ba:	2300      	movs	r3, #0
 80009bc:	7b66      	ldrb	r6, [r4, #13]
 80009be:	702b      	strb	r3, [r5, #0]
 80009c0:	002a      	movs	r2, r5
 80009c2:	3301      	adds	r3, #1
 80009c4:	2175      	movs	r1, #117	; 0x75
 80009c6:	7a20      	ldrb	r0, [r4, #8]
 80009c8:	6867      	ldr	r7, [r4, #4]
 80009ca:	47b8      	blx	r7
 80009cc:	782b      	ldrb	r3, [r5, #0]
 80009ce:	7260      	strb	r0, [r4, #9]
 80009d0:	2b68      	cmp	r3, #104	; 0x68
 80009d2:	d165      	bne.n	8000aa0 <MpuInitialize+0x164>
 80009d4:	702e      	strb	r6, [r5, #0]
 80009d6:	002a      	movs	r2, r5
 80009d8:	211b      	movs	r1, #27
 80009da:	7a20      	ldrb	r0, [r4, #8]
 80009dc:	6823      	ldr	r3, [r4, #0]
 80009de:	4798      	blx	r3
 80009e0:	7260      	strb	r0, [r4, #9]
 80009e2:	2300      	movs	r3, #0
 80009e4:	7b26      	ldrb	r6, [r4, #12]
 80009e6:	702b      	strb	r3, [r5, #0]
 80009e8:	002a      	movs	r2, r5
 80009ea:	3301      	adds	r3, #1
 80009ec:	2175      	movs	r1, #117	; 0x75
 80009ee:	7a20      	ldrb	r0, [r4, #8]
 80009f0:	6867      	ldr	r7, [r4, #4]
 80009f2:	47b8      	blx	r7
 80009f4:	782b      	ldrb	r3, [r5, #0]
 80009f6:	7260      	strb	r0, [r4, #9]
 80009f8:	2b68      	cmp	r3, #104	; 0x68
 80009fa:	d14b      	bne.n	8000a94 <MpuInitialize+0x158>
 80009fc:	702e      	strb	r6, [r5, #0]
 80009fe:	002a      	movs	r2, r5
 8000a00:	211c      	movs	r1, #28
 8000a02:	7a20      	ldrb	r0, [r4, #8]
 8000a04:	6823      	ldr	r3, [r4, #0]
 8000a06:	4798      	blx	r3
 8000a08:	7260      	strb	r0, [r4, #9]
 8000a0a:	2300      	movs	r3, #0
 8000a0c:	7aa6      	ldrb	r6, [r4, #10]
 8000a0e:	702b      	strb	r3, [r5, #0]
 8000a10:	002a      	movs	r2, r5
 8000a12:	3301      	adds	r3, #1
 8000a14:	2175      	movs	r1, #117	; 0x75
 8000a16:	7a20      	ldrb	r0, [r4, #8]
 8000a18:	6867      	ldr	r7, [r4, #4]
 8000a1a:	47b8      	blx	r7
 8000a1c:	782b      	ldrb	r3, [r5, #0]
 8000a1e:	7260      	strb	r0, [r4, #9]
 8000a20:	2b68      	cmp	r3, #104	; 0x68
 8000a22:	d131      	bne.n	8000a88 <MpuInitialize+0x14c>
 8000a24:	702e      	strb	r6, [r5, #0]
 8000a26:	002a      	movs	r2, r5
 8000a28:	216b      	movs	r1, #107	; 0x6b
 8000a2a:	7a20      	ldrb	r0, [r4, #8]
 8000a2c:	6823      	ldr	r3, [r4, #0]
 8000a2e:	4798      	blx	r3
 8000a30:	7260      	strb	r0, [r4, #9]
 8000a32:	2300      	movs	r3, #0
 8000a34:	466a      	mov	r2, sp
 8000a36:	702b      	strb	r3, [r5, #0]
 8000a38:	7193      	strb	r3, [r2, #6]
 8000a3a:	2175      	movs	r1, #117	; 0x75
 8000a3c:	3301      	adds	r3, #1
 8000a3e:	002a      	movs	r2, r5
 8000a40:	7a20      	ldrb	r0, [r4, #8]
 8000a42:	6866      	ldr	r6, [r4, #4]
 8000a44:	47b0      	blx	r6
 8000a46:	782b      	ldrb	r3, [r5, #0]
 8000a48:	7260      	strb	r0, [r4, #9]
 8000a4a:	2b68      	cmp	r3, #104	; 0x68
 8000a4c:	d116      	bne.n	8000a7c <MpuInitialize+0x140>
 8000a4e:	466a      	mov	r2, sp
 8000a50:	211b      	movs	r1, #27
 8000a52:	7a20      	ldrb	r0, [r4, #8]
 8000a54:	6865      	ldr	r5, [r4, #4]
 8000a56:	3b67      	subs	r3, #103	; 0x67
 8000a58:	3206      	adds	r2, #6
 8000a5a:	47a8      	blx	r5
 8000a5c:	7260      	strb	r0, [r4, #9]
 8000a5e:	466b      	mov	r3, sp
 8000a60:	2280      	movs	r2, #128	; 0x80
 8000a62:	799b      	ldrb	r3, [r3, #6]
 8000a64:	01d2      	lsls	r2, r2, #7
 8000a66:	06db      	lsls	r3, r3, #27
 8000a68:	0f9b      	lsrs	r3, r3, #30
 8000a6a:	411a      	asrs	r2, r3
 8000a6c:	73a2      	strb	r2, [r4, #14]
 8000a6e:	e77b      	b.n	8000968 <MpuInitialize+0x2c>
 8000a70:	23fd      	movs	r3, #253	; 0xfd
 8000a72:	0020      	movs	r0, r4
 8000a74:	7263      	strb	r3, [r4, #9]
 8000a76:	f7ff fee5 	bl	8000844 <MpuHandleErrors>
 8000a7a:	e78a      	b.n	8000992 <MpuInitialize+0x56>
 8000a7c:	23fd      	movs	r3, #253	; 0xfd
 8000a7e:	0020      	movs	r0, r4
 8000a80:	7263      	strb	r3, [r4, #9]
 8000a82:	f7ff fedf 	bl	8000844 <MpuHandleErrors>
 8000a86:	e7ea      	b.n	8000a5e <MpuInitialize+0x122>
 8000a88:	23fd      	movs	r3, #253	; 0xfd
 8000a8a:	0020      	movs	r0, r4
 8000a8c:	7263      	strb	r3, [r4, #9]
 8000a8e:	f7ff fed9 	bl	8000844 <MpuHandleErrors>
 8000a92:	e7ce      	b.n	8000a32 <MpuInitialize+0xf6>
 8000a94:	23fd      	movs	r3, #253	; 0xfd
 8000a96:	0020      	movs	r0, r4
 8000a98:	7263      	strb	r3, [r4, #9]
 8000a9a:	f7ff fed3 	bl	8000844 <MpuHandleErrors>
 8000a9e:	e7b4      	b.n	8000a0a <MpuInitialize+0xce>
 8000aa0:	23fd      	movs	r3, #253	; 0xfd
 8000aa2:	0020      	movs	r0, r4
 8000aa4:	7263      	strb	r3, [r4, #9]
 8000aa6:	f7ff fecd 	bl	8000844 <MpuHandleErrors>
 8000aaa:	e79a      	b.n	80009e2 <MpuInitialize+0xa6>
 8000aac:	23fd      	movs	r3, #253	; 0xfd
 8000aae:	0020      	movs	r0, r4
 8000ab0:	7263      	strb	r3, [r4, #9]
 8000ab2:	f7ff fec7 	bl	8000844 <MpuHandleErrors>
 8000ab6:	e780      	b.n	80009ba <MpuInitialize+0x7e>

08000ab8 <HAL_MspInit>:
 8000ab8:	2201      	movs	r2, #1
 8000aba:	4b0c      	ldr	r3, [pc, #48]	; (8000aec <HAL_MspInit+0x34>)
 8000abc:	b500      	push	{lr}
 8000abe:	6c19      	ldr	r1, [r3, #64]	; 0x40
 8000ac0:	20c0      	movs	r0, #192	; 0xc0
 8000ac2:	4311      	orrs	r1, r2
 8000ac4:	6419      	str	r1, [r3, #64]	; 0x40
 8000ac6:	6c19      	ldr	r1, [r3, #64]	; 0x40
 8000ac8:	b083      	sub	sp, #12
 8000aca:	400a      	ands	r2, r1
 8000acc:	2180      	movs	r1, #128	; 0x80
 8000ace:	9200      	str	r2, [sp, #0]
 8000ad0:	9a00      	ldr	r2, [sp, #0]
 8000ad2:	6bda      	ldr	r2, [r3, #60]	; 0x3c
 8000ad4:	0549      	lsls	r1, r1, #21
 8000ad6:	430a      	orrs	r2, r1
 8000ad8:	63da      	str	r2, [r3, #60]	; 0x3c
 8000ada:	6bdb      	ldr	r3, [r3, #60]	; 0x3c
 8000adc:	00c0      	lsls	r0, r0, #3
 8000ade:	400b      	ands	r3, r1
 8000ae0:	9301      	str	r3, [sp, #4]
 8000ae2:	9b01      	ldr	r3, [sp, #4]
 8000ae4:	f000 f90e 	bl	8000d04 <HAL_SYSCFG_StrobeDBattpinsConfig>
 8000ae8:	b003      	add	sp, #12
 8000aea:	bd00      	pop	{pc}
 8000aec:	40021000 	.word	0x40021000

08000af0 <HAL_I2C_MspInit>:
 8000af0:	b510      	push	{r4, lr}
 8000af2:	0004      	movs	r4, r0
 8000af4:	b094      	sub	sp, #80	; 0x50
 8000af6:	2214      	movs	r2, #20
 8000af8:	2100      	movs	r1, #0
 8000afa:	a802      	add	r0, sp, #8
 8000afc:	f001 ff8a 	bl	8002a14 <memset>
 8000b00:	2234      	movs	r2, #52	; 0x34
 8000b02:	2100      	movs	r1, #0
 8000b04:	a807      	add	r0, sp, #28
 8000b06:	f001 ff85 	bl	8002a14 <memset>
 8000b0a:	4b19      	ldr	r3, [pc, #100]	; (8000b70 <HAL_I2C_MspInit+0x80>)
 8000b0c:	6822      	ldr	r2, [r4, #0]
 8000b0e:	429a      	cmp	r2, r3
 8000b10:	d001      	beq.n	8000b16 <HAL_I2C_MspInit+0x26>
 8000b12:	b014      	add	sp, #80	; 0x50
 8000b14:	bd10      	pop	{r4, pc}
 8000b16:	2320      	movs	r3, #32
 8000b18:	a807      	add	r0, sp, #28
 8000b1a:	9307      	str	r3, [sp, #28]
 8000b1c:	f001 fb04 	bl	8002128 <HAL_RCCEx_PeriphCLKConfig>
 8000b20:	2800      	cmp	r0, #0
 8000b22:	d122      	bne.n	8000b6a <HAL_I2C_MspInit+0x7a>
 8000b24:	2301      	movs	r3, #1
 8000b26:	4c13      	ldr	r4, [pc, #76]	; (8000b74 <HAL_I2C_MspInit+0x84>)
 8000b28:	20a0      	movs	r0, #160	; 0xa0
 8000b2a:	6b62      	ldr	r2, [r4, #52]	; 0x34
 8000b2c:	a902      	add	r1, sp, #8
 8000b2e:	431a      	orrs	r2, r3
 8000b30:	6362      	str	r2, [r4, #52]	; 0x34
 8000b32:	6b62      	ldr	r2, [r4, #52]	; 0x34
 8000b34:	05c0      	lsls	r0, r0, #23
 8000b36:	4013      	ands	r3, r2
 8000b38:	9300      	str	r3, [sp, #0]
 8000b3a:	22c0      	movs	r2, #192	; 0xc0
 8000b3c:	9b00      	ldr	r3, [sp, #0]
 8000b3e:	2312      	movs	r3, #18
 8000b40:	00d2      	lsls	r2, r2, #3
 8000b42:	9202      	str	r2, [sp, #8]
 8000b44:	9303      	str	r3, [sp, #12]
 8000b46:	2200      	movs	r2, #0
 8000b48:	2300      	movs	r3, #0
 8000b4a:	9204      	str	r2, [sp, #16]
 8000b4c:	9305      	str	r3, [sp, #20]
 8000b4e:	2306      	movs	r3, #6
 8000b50:	9306      	str	r3, [sp, #24]
 8000b52:	f000 f92f 	bl	8000db4 <HAL_GPIO_Init>
 8000b56:	2180      	movs	r1, #128	; 0x80
 8000b58:	6be2      	ldr	r2, [r4, #60]	; 0x3c
 8000b5a:	0389      	lsls	r1, r1, #14
 8000b5c:	430a      	orrs	r2, r1
 8000b5e:	63e2      	str	r2, [r4, #60]	; 0x3c
 8000b60:	6be3      	ldr	r3, [r4, #60]	; 0x3c
 8000b62:	400b      	ands	r3, r1
 8000b64:	9301      	str	r3, [sp, #4]
 8000b66:	9b01      	ldr	r3, [sp, #4]
 8000b68:	e7d3      	b.n	8000b12 <HAL_I2C_MspInit+0x22>
 8000b6a:	f7ff fe79 	bl	8000860 <Error_Handler>
 8000b6e:	e7d9      	b.n	8000b24 <HAL_I2C_MspInit+0x34>
 8000b70:	40005400 	.word	0x40005400
 8000b74:	40021000 	.word	0x40021000

08000b78 <HAL_UART_MspInit>:
 8000b78:	b510      	push	{r4, lr}
 8000b7a:	0004      	movs	r4, r0
 8000b7c:	b094      	sub	sp, #80	; 0x50
 8000b7e:	2214      	movs	r2, #20
 8000b80:	2100      	movs	r1, #0
 8000b82:	a802      	add	r0, sp, #8
 8000b84:	f001 ff46 	bl	8002a14 <memset>
 8000b88:	2234      	movs	r2, #52	; 0x34
 8000b8a:	2100      	movs	r1, #0
 8000b8c:	a807      	add	r0, sp, #28
 8000b8e:	f001 ff41 	bl	8002a14 <memset>
 8000b92:	4b18      	ldr	r3, [pc, #96]	; (8000bf4 <HAL_UART_MspInit+0x7c>)
 8000b94:	6822      	ldr	r2, [r4, #0]
 8000b96:	429a      	cmp	r2, r3
 8000b98:	d001      	beq.n	8000b9e <HAL_UART_MspInit+0x26>
 8000b9a:	b014      	add	sp, #80	; 0x50
 8000b9c:	bd10      	pop	{r4, pc}
 8000b9e:	2302      	movs	r3, #2
 8000ba0:	a807      	add	r0, sp, #28
 8000ba2:	9307      	str	r3, [sp, #28]
 8000ba4:	f001 fac0 	bl	8002128 <HAL_RCCEx_PeriphCLKConfig>
 8000ba8:	2800      	cmp	r0, #0
 8000baa:	d120      	bne.n	8000bee <HAL_UART_MspInit+0x76>
 8000bac:	2080      	movs	r0, #128	; 0x80
 8000bae:	4b12      	ldr	r3, [pc, #72]	; (8000bf8 <HAL_UART_MspInit+0x80>)
 8000bb0:	0280      	lsls	r0, r0, #10
 8000bb2:	6bd9      	ldr	r1, [r3, #60]	; 0x3c
 8000bb4:	4301      	orrs	r1, r0
 8000bb6:	63d9      	str	r1, [r3, #60]	; 0x3c
 8000bb8:	6bda      	ldr	r2, [r3, #60]	; 0x3c
 8000bba:	4002      	ands	r2, r0
 8000bbc:	9200      	str	r2, [sp, #0]
 8000bbe:	9a00      	ldr	r2, [sp, #0]
 8000bc0:	2201      	movs	r2, #1
 8000bc2:	6b59      	ldr	r1, [r3, #52]	; 0x34
 8000bc4:	200c      	movs	r0, #12
 8000bc6:	4311      	orrs	r1, r2
 8000bc8:	6359      	str	r1, [r3, #52]	; 0x34
 8000bca:	2102      	movs	r1, #2
 8000bcc:	6b5b      	ldr	r3, [r3, #52]	; 0x34
 8000bce:	9002      	str	r0, [sp, #8]
 8000bd0:	9103      	str	r1, [sp, #12]
 8000bd2:	2001      	movs	r0, #1
 8000bd4:	2100      	movs	r1, #0
 8000bd6:	9004      	str	r0, [sp, #16]
 8000bd8:	9105      	str	r1, [sp, #20]
 8000bda:	20a0      	movs	r0, #160	; 0xa0
 8000bdc:	4013      	ands	r3, r2
 8000bde:	9301      	str	r3, [sp, #4]
 8000be0:	a902      	add	r1, sp, #8
 8000be2:	05c0      	lsls	r0, r0, #23
 8000be4:	9b01      	ldr	r3, [sp, #4]
 8000be6:	9206      	str	r2, [sp, #24]
 8000be8:	f000 f8e4 	bl	8000db4 <HAL_GPIO_Init>
 8000bec:	e7d5      	b.n	8000b9a <HAL_UART_MspInit+0x22>
 8000bee:	f7ff fe37 	bl	8000860 <Error_Handler>
 8000bf2:	e7db      	b.n	8000bac <HAL_UART_MspInit+0x34>
 8000bf4:	40004400 	.word	0x40004400
 8000bf8:	40021000 	.word	0x40021000

08000bfc <NMI_Handler>:
 8000bfc:	e7fe      	b.n	8000bfc <NMI_Handler>
 8000bfe:	46c0      	nop			; (mov r8, r8)

08000c00 <HardFault_Handler>:
 8000c00:	e7fe      	b.n	8000c00 <HardFault_Handler>
 8000c02:	46c0      	nop			; (mov r8, r8)

08000c04 <SVC_Handler>:
 8000c04:	4770      	bx	lr
 8000c06:	46c0      	nop			; (mov r8, r8)

08000c08 <PendSV_Handler>:
 8000c08:	4770      	bx	lr
 8000c0a:	46c0      	nop			; (mov r8, r8)

08000c0c <SysTick_Handler>:
 8000c0c:	b510      	push	{r4, lr}
 8000c0e:	f000 f867 	bl	8000ce0 <HAL_IncTick>
 8000c12:	bd10      	pop	{r4, pc}

08000c14 <SystemInit>:
 8000c14:	4770      	bx	lr
 8000c16:	46c0      	nop			; (mov r8, r8)

08000c18 <Reset_Handler>:
 8000c18:	480d      	ldr	r0, [pc, #52]	; (8000c50 <LoopForever+0x2>)
 8000c1a:	4685      	mov	sp, r0
 8000c1c:	f7ff fffa 	bl	8000c14 <SystemInit>
 8000c20:	480c      	ldr	r0, [pc, #48]	; (8000c54 <LoopForever+0x6>)
 8000c22:	490d      	ldr	r1, [pc, #52]	; (8000c58 <LoopForever+0xa>)
 8000c24:	4a0d      	ldr	r2, [pc, #52]	; (8000c5c <LoopForever+0xe>)
 8000c26:	2300      	movs	r3, #0
 8000c28:	e002      	b.n	8000c30 <LoopCopyDataInit>

08000c2a <CopyDataInit>:
 8000c2a:	58d4      	ldr	r4, [r2, r3]
 8000c2c:	50c4      	str	r4, [r0, r3]
 8000c2e:	3304      	adds	r3, #4

08000c30 <LoopCopyDataInit>:
 8000c30:	18c4      	adds	r4, r0, r3
 8000c32:	428c      	cmp	r4, r1
 8000c34:	d3f9      	bcc.n	8000c2a <CopyDataInit>
 8000c36:	4a0a      	ldr	r2, [pc, #40]	; (8000c60 <LoopForever+0x12>)
 8000c38:	4c0a      	ldr	r4, [pc, #40]	; (8000c64 <LoopForever+0x16>)
 8000c3a:	2300      	movs	r3, #0
 8000c3c:	e001      	b.n	8000c42 <LoopFillZerobss>

08000c3e <FillZerobss>:
 8000c3e:	6013      	str	r3, [r2, #0]
 8000c40:	3204      	adds	r2, #4

08000c42 <LoopFillZerobss>:
 8000c42:	42a2      	cmp	r2, r4
 8000c44:	d3fb      	bcc.n	8000c3e <FillZerobss>
 8000c46:	f001 fec1 	bl	80029cc <__libc_init_array>
 8000c4a:	f7ff fd43 	bl	80006d4 <main>

08000c4e <LoopForever>:
 8000c4e:	e7fe      	b.n	8000c4e <LoopForever>
 8000c50:	20009000 	.word	0x20009000
 8000c54:	20000000 	.word	0x20000000
 8000c58:	2000000c 	.word	0x2000000c
 8000c5c:	08002af0 	.word	0x08002af0
 8000c60:	2000000c 	.word	0x2000000c
 8000c64:	20000110 	.word	0x20000110

08000c68 <ADC1_COMP_IRQHandler>:
 8000c68:	e7fe      	b.n	8000c68 <ADC1_COMP_IRQHandler>
	...

08000c6c <HAL_InitTick>:
 8000c6c:	b510      	push	{r4, lr}
 8000c6e:	4b0f      	ldr	r3, [pc, #60]	; (8000cac <HAL_InitTick+0x40>)
 8000c70:	0004      	movs	r4, r0
 8000c72:	7819      	ldrb	r1, [r3, #0]
 8000c74:	2900      	cmp	r1, #0
 8000c76:	d101      	bne.n	8000c7c <HAL_InitTick+0x10>
 8000c78:	2001      	movs	r0, #1
 8000c7a:	bd10      	pop	{r4, pc}
 8000c7c:	20fa      	movs	r0, #250	; 0xfa
 8000c7e:	0080      	lsls	r0, r0, #2
 8000c80:	f7ff fa40 	bl	8000104 <__udivsi3>
 8000c84:	4b0a      	ldr	r3, [pc, #40]	; (8000cb0 <HAL_InitTick+0x44>)
 8000c86:	0001      	movs	r1, r0
 8000c88:	6818      	ldr	r0, [r3, #0]
 8000c8a:	f7ff fa3b 	bl	8000104 <__udivsi3>
 8000c8e:	f000 f877 	bl	8000d80 <HAL_SYSTICK_Config>
 8000c92:	2800      	cmp	r0, #0
 8000c94:	d1f0      	bne.n	8000c78 <HAL_InitTick+0xc>
 8000c96:	2c03      	cmp	r4, #3
 8000c98:	d8ee      	bhi.n	8000c78 <HAL_InitTick+0xc>
 8000c9a:	3801      	subs	r0, #1
 8000c9c:	2200      	movs	r2, #0
 8000c9e:	0021      	movs	r1, r4
 8000ca0:	f000 f83c 	bl	8000d1c <HAL_NVIC_SetPriority>
 8000ca4:	4b03      	ldr	r3, [pc, #12]	; (8000cb4 <HAL_InitTick+0x48>)
 8000ca6:	2000      	movs	r0, #0
 8000ca8:	601c      	str	r4, [r3, #0]
 8000caa:	e7e6      	b.n	8000c7a <HAL_InitTick+0xe>
 8000cac:	20000004 	.word	0x20000004
 8000cb0:	20000000 	.word	0x20000000
 8000cb4:	20000008 	.word	0x20000008

08000cb8 <HAL_Init>:
 8000cb8:	2380      	movs	r3, #128	; 0x80
 8000cba:	4a08      	ldr	r2, [pc, #32]	; (8000cdc <HAL_Init+0x24>)
 8000cbc:	005b      	lsls	r3, r3, #1
 8000cbe:	6811      	ldr	r1, [r2, #0]
 8000cc0:	b510      	push	{r4, lr}
 8000cc2:	430b      	orrs	r3, r1
 8000cc4:	2000      	movs	r0, #0
 8000cc6:	6013      	str	r3, [r2, #0]
 8000cc8:	f7ff ffd0 	bl	8000c6c <HAL_InitTick>
 8000ccc:	1e04      	subs	r4, r0, #0
 8000cce:	d002      	beq.n	8000cd6 <HAL_Init+0x1e>
 8000cd0:	2401      	movs	r4, #1
 8000cd2:	0020      	movs	r0, r4
 8000cd4:	bd10      	pop	{r4, pc}
 8000cd6:	f7ff feef 	bl	8000ab8 <HAL_MspInit>
 8000cda:	e7fa      	b.n	8000cd2 <HAL_Init+0x1a>
 8000cdc:	40022000 	.word	0x40022000

08000ce0 <HAL_IncTick>:
 8000ce0:	4a03      	ldr	r2, [pc, #12]	; (8000cf0 <HAL_IncTick+0x10>)
 8000ce2:	4b04      	ldr	r3, [pc, #16]	; (8000cf4 <HAL_IncTick+0x14>)
 8000ce4:	6811      	ldr	r1, [r2, #0]
 8000ce6:	781b      	ldrb	r3, [r3, #0]
 8000ce8:	185b      	adds	r3, r3, r1
 8000cea:	6013      	str	r3, [r2, #0]
 8000cec:	4770      	bx	lr
 8000cee:	46c0      	nop			; (mov r8, r8)
 8000cf0:	2000010c 	.word	0x2000010c
 8000cf4:	20000004 	.word	0x20000004

08000cf8 <HAL_GetTick>:
 8000cf8:	4b01      	ldr	r3, [pc, #4]	; (8000d00 <HAL_GetTick+0x8>)
 8000cfa:	6818      	ldr	r0, [r3, #0]
 8000cfc:	4770      	bx	lr
 8000cfe:	46c0      	nop			; (mov r8, r8)
 8000d00:	2000010c 	.word	0x2000010c

08000d04 <HAL_SYSCFG_StrobeDBattpinsConfig>:
 8000d04:	4a03      	ldr	r2, [pc, #12]	; (8000d14 <HAL_SYSCFG_StrobeDBattpinsConfig+0x10>)
 8000d06:	4904      	ldr	r1, [pc, #16]	; (8000d18 <HAL_SYSCFG_StrobeDBattpinsConfig+0x14>)
 8000d08:	6813      	ldr	r3, [r2, #0]
 8000d0a:	400b      	ands	r3, r1
 8000d0c:	4303      	orrs	r3, r0
 8000d0e:	6013      	str	r3, [r2, #0]
 8000d10:	4770      	bx	lr
 8000d12:	46c0      	nop			; (mov r8, r8)
 8000d14:	40010000 	.word	0x40010000
 8000d18:	fffff9ff 	.word	0xfffff9ff

08000d1c <HAL_NVIC_SetPriority>:
 8000d1c:	b570      	push	{r4, r5, r6, lr}
 8000d1e:	2800      	cmp	r0, #0
 8000d20:	db14      	blt.n	8000d4c <HAL_NVIC_SetPriority+0x30>
 8000d22:	4b15      	ldr	r3, [pc, #84]	; (8000d78 <HAL_NVIC_SetPriority+0x5c>)
 8000d24:	2203      	movs	r2, #3
 8000d26:	469c      	mov	ip, r3
 8000d28:	23ff      	movs	r3, #255	; 0xff
 8000d2a:	0884      	lsrs	r4, r0, #2
 8000d2c:	4010      	ands	r0, r2
 8000d2e:	001a      	movs	r2, r3
 8000d30:	26c0      	movs	r6, #192	; 0xc0
 8000d32:	00c0      	lsls	r0, r0, #3
 8000d34:	0189      	lsls	r1, r1, #6
 8000d36:	4082      	lsls	r2, r0
 8000d38:	400b      	ands	r3, r1
 8000d3a:	4083      	lsls	r3, r0
 8000d3c:	00a4      	lsls	r4, r4, #2
 8000d3e:	4464      	add	r4, ip
 8000d40:	00b6      	lsls	r6, r6, #2
 8000d42:	59a5      	ldr	r5, [r4, r6]
 8000d44:	4395      	bics	r5, r2
 8000d46:	432b      	orrs	r3, r5
 8000d48:	51a3      	str	r3, [r4, r6]
 8000d4a:	bd70      	pop	{r4, r5, r6, pc}
 8000d4c:	4a0b      	ldr	r2, [pc, #44]	; (8000d7c <HAL_NVIC_SetPriority+0x60>)
 8000d4e:	230f      	movs	r3, #15
 8000d50:	4694      	mov	ip, r2
 8000d52:	2203      	movs	r2, #3
 8000d54:	4003      	ands	r3, r0
 8000d56:	4010      	ands	r0, r2
 8000d58:	32fc      	adds	r2, #252	; 0xfc
 8000d5a:	0015      	movs	r5, r2
 8000d5c:	00c0      	lsls	r0, r0, #3
 8000d5e:	0189      	lsls	r1, r1, #6
 8000d60:	4085      	lsls	r5, r0
 8000d62:	400a      	ands	r2, r1
 8000d64:	4082      	lsls	r2, r0
 8000d66:	3b08      	subs	r3, #8
 8000d68:	089b      	lsrs	r3, r3, #2
 8000d6a:	009b      	lsls	r3, r3, #2
 8000d6c:	4463      	add	r3, ip
 8000d6e:	69dc      	ldr	r4, [r3, #28]
 8000d70:	43ac      	bics	r4, r5
 8000d72:	4322      	orrs	r2, r4
 8000d74:	61da      	str	r2, [r3, #28]
 8000d76:	e7e8      	b.n	8000d4a <HAL_NVIC_SetPriority+0x2e>
 8000d78:	e000e100 	.word	0xe000e100
 8000d7c:	e000ed00 	.word	0xe000ed00

08000d80 <HAL_SYSTICK_Config>:
 8000d80:	2280      	movs	r2, #128	; 0x80
 8000d82:	1e43      	subs	r3, r0, #1
 8000d84:	0452      	lsls	r2, r2, #17
 8000d86:	2001      	movs	r0, #1
 8000d88:	4293      	cmp	r3, r2
 8000d8a:	d20e      	bcs.n	8000daa <HAL_SYSTICK_Config+0x2a>
 8000d8c:	21c0      	movs	r1, #192	; 0xc0
 8000d8e:	4a07      	ldr	r2, [pc, #28]	; (8000dac <HAL_SYSTICK_Config+0x2c>)
 8000d90:	4807      	ldr	r0, [pc, #28]	; (8000db0 <HAL_SYSTICK_Config+0x30>)
 8000d92:	6053      	str	r3, [r2, #4]
 8000d94:	6a03      	ldr	r3, [r0, #32]
 8000d96:	0609      	lsls	r1, r1, #24
 8000d98:	021b      	lsls	r3, r3, #8
 8000d9a:	0a1b      	lsrs	r3, r3, #8
 8000d9c:	430b      	orrs	r3, r1
 8000d9e:	6203      	str	r3, [r0, #32]
 8000da0:	2300      	movs	r3, #0
 8000da2:	2000      	movs	r0, #0
 8000da4:	6093      	str	r3, [r2, #8]
 8000da6:	3307      	adds	r3, #7
 8000da8:	6013      	str	r3, [r2, #0]
 8000daa:	4770      	bx	lr
 8000dac:	e000e010 	.word	0xe000e010
 8000db0:	e000ed00 	.word	0xe000ed00

08000db4 <HAL_GPIO_Init>:
 8000db4:	b5f0      	push	{r4, r5, r6, r7, lr}
 8000db6:	46de      	mov	lr, fp
 8000db8:	4657      	mov	r7, sl
 8000dba:	464e      	mov	r6, r9
 8000dbc:	4645      	mov	r5, r8
 8000dbe:	b5e0      	push	{r5, r6, r7, lr}
 8000dc0:	680c      	ldr	r4, [r1, #0]
 8000dc2:	468c      	mov	ip, r1
 8000dc4:	2200      	movs	r2, #0
 8000dc6:	2300      	movs	r3, #0
 8000dc8:	b083      	sub	sp, #12
 8000dca:	2c00      	cmp	r4, #0
 8000dcc:	d100      	bne.n	8000dd0 <HAL_GPIO_Init+0x1c>
 8000dce:	e080      	b.n	8000ed2 <HAL_GPIO_Init+0x11e>
 8000dd0:	497b      	ldr	r1, [pc, #492]	; (8000fc0 <HAL_GPIO_Init+0x20c>)
 8000dd2:	468b      	mov	fp, r1
 8000dd4:	4661      	mov	r1, ip
 8000dd6:	9101      	str	r1, [sp, #4]
 8000dd8:	2601      	movs	r6, #1
 8000dda:	0021      	movs	r1, r4
 8000ddc:	409e      	lsls	r6, r3
 8000dde:	4031      	ands	r1, r6
 8000de0:	468a      	mov	sl, r1
 8000de2:	4234      	tst	r4, r6
 8000de4:	d06f      	beq.n	8000ec6 <HAL_GPIO_Init+0x112>
 8000de6:	9d01      	ldr	r5, [sp, #4]
 8000de8:	6869      	ldr	r1, [r5, #4]
 8000dea:	2503      	movs	r5, #3
 8000dec:	400d      	ands	r5, r1
 8000dee:	46ac      	mov	ip, r5
 8000df0:	3d01      	subs	r5, #1
 8000df2:	2d01      	cmp	r5, #1
 8000df4:	d800      	bhi.n	8000df8 <HAL_GPIO_Init+0x44>
 8000df6:	e073      	b.n	8000ee0 <HAL_GPIO_Init+0x12c>
 8000df8:	4665      	mov	r5, ip
 8000dfa:	2d03      	cmp	r5, #3
 8000dfc:	d000      	beq.n	8000e00 <HAL_GPIO_Init+0x4c>
 8000dfe:	e0b7      	b.n	8000f70 <HAL_GPIO_Init+0x1bc>
 8000e00:	4666      	mov	r6, ip
 8000e02:	4096      	lsls	r6, r2
 8000e04:	43f5      	mvns	r5, r6
 8000e06:	9500      	str	r5, [sp, #0]
 8000e08:	6807      	ldr	r7, [r0, #0]
 8000e0a:	9d00      	ldr	r5, [sp, #0]
 8000e0c:	403d      	ands	r5, r7
 8000e0e:	4335      	orrs	r5, r6
 8000e10:	6005      	str	r5, [r0, #0]
 8000e12:	25c0      	movs	r5, #192	; 0xc0
 8000e14:	02ad      	lsls	r5, r5, #10
 8000e16:	4229      	tst	r1, r5
 8000e18:	d055      	beq.n	8000ec6 <HAL_GPIO_Init+0x112>
 8000e1a:	4e69      	ldr	r6, [pc, #420]	; (8000fc0 <HAL_GPIO_Init+0x20c>)
 8000e1c:	2703      	movs	r7, #3
 8000e1e:	46b4      	mov	ip, r6
 8000e20:	089d      	lsrs	r5, r3, #2
 8000e22:	401f      	ands	r7, r3
 8000e24:	00ff      	lsls	r7, r7, #3
 8000e26:	00ad      	lsls	r5, r5, #2
 8000e28:	4465      	add	r5, ip
 8000e2a:	46bc      	mov	ip, r7
 8000e2c:	6e2e      	ldr	r6, [r5, #96]	; 0x60
 8000e2e:	270f      	movs	r7, #15
 8000e30:	46b1      	mov	r9, r6
 8000e32:	4666      	mov	r6, ip
 8000e34:	40b7      	lsls	r7, r6
 8000e36:	003e      	movs	r6, r7
 8000e38:	464f      	mov	r7, r9
 8000e3a:	43b7      	bics	r7, r6
 8000e3c:	46b9      	mov	r9, r7
 8000e3e:	27a0      	movs	r7, #160	; 0xa0
 8000e40:	05ff      	lsls	r7, r7, #23
 8000e42:	42b8      	cmp	r0, r7
 8000e44:	d012      	beq.n	8000e6c <HAL_GPIO_Init+0xb8>
 8000e46:	4f5f      	ldr	r7, [pc, #380]	; (8000fc4 <HAL_GPIO_Init+0x210>)
 8000e48:	42b8      	cmp	r0, r7
 8000e4a:	d100      	bne.n	8000e4e <HAL_GPIO_Init+0x9a>
 8000e4c:	e0a8      	b.n	8000fa0 <HAL_GPIO_Init+0x1ec>
 8000e4e:	4f5e      	ldr	r7, [pc, #376]	; (8000fc8 <HAL_GPIO_Init+0x214>)
 8000e50:	42b8      	cmp	r0, r7
 8000e52:	d100      	bne.n	8000e56 <HAL_GPIO_Init+0xa2>
 8000e54:	e0ac      	b.n	8000fb0 <HAL_GPIO_Init+0x1fc>
 8000e56:	4f5d      	ldr	r7, [pc, #372]	; (8000fcc <HAL_GPIO_Init+0x218>)
 8000e58:	42b8      	cmp	r0, r7
 8000e5a:	d100      	bne.n	8000e5e <HAL_GPIO_Init+0xaa>
 8000e5c:	e099      	b.n	8000f92 <HAL_GPIO_Init+0x1de>
 8000e5e:	4666      	mov	r6, ip
 8000e60:	2705      	movs	r7, #5
 8000e62:	40b7      	lsls	r7, r6
 8000e64:	003e      	movs	r6, r7
 8000e66:	464f      	mov	r7, r9
 8000e68:	4337      	orrs	r7, r6
 8000e6a:	46b9      	mov	r9, r7
 8000e6c:	464e      	mov	r6, r9
 8000e6e:	662e      	str	r6, [r5, #96]	; 0x60
 8000e70:	4656      	mov	r6, sl
 8000e72:	2780      	movs	r7, #128	; 0x80
 8000e74:	465d      	mov	r5, fp
 8000e76:	43f6      	mvns	r6, r6
 8000e78:	037f      	lsls	r7, r7, #13
 8000e7a:	46b0      	mov	r8, r6
 8000e7c:	682d      	ldr	r5, [r5, #0]
 8000e7e:	4239      	tst	r1, r7
 8000e80:	d000      	beq.n	8000e84 <HAL_GPIO_Init+0xd0>
 8000e82:	e083      	b.n	8000f8c <HAL_GPIO_Init+0x1d8>
 8000e84:	4035      	ands	r5, r6
 8000e86:	465f      	mov	r7, fp
 8000e88:	603d      	str	r5, [r7, #0]
 8000e8a:	687d      	ldr	r5, [r7, #4]
 8000e8c:	2780      	movs	r7, #128	; 0x80
 8000e8e:	03bf      	lsls	r7, r7, #14
 8000e90:	4239      	tst	r1, r7
 8000e92:	d000      	beq.n	8000e96 <HAL_GPIO_Init+0xe2>
 8000e94:	e077      	b.n	8000f86 <HAL_GPIO_Init+0x1d2>
 8000e96:	4646      	mov	r6, r8
 8000e98:	4035      	ands	r5, r6
 8000e9a:	465f      	mov	r7, fp
 8000e9c:	607d      	str	r5, [r7, #4]
 8000e9e:	2584      	movs	r5, #132	; 0x84
 8000ea0:	597d      	ldr	r5, [r7, r5]
 8000ea2:	038e      	lsls	r6, r1, #14
 8000ea4:	d46c      	bmi.n	8000f80 <HAL_GPIO_Init+0x1cc>
 8000ea6:	4646      	mov	r6, r8
 8000ea8:	4035      	ands	r5, r6
 8000eaa:	2784      	movs	r7, #132	; 0x84
 8000eac:	46bc      	mov	ip, r7
 8000eae:	465f      	mov	r7, fp
 8000eb0:	4666      	mov	r6, ip
 8000eb2:	51bd      	str	r5, [r7, r6]
 8000eb4:	2580      	movs	r5, #128	; 0x80
 8000eb6:	597d      	ldr	r5, [r7, r5]
 8000eb8:	03c9      	lsls	r1, r1, #15
 8000eba:	d45e      	bmi.n	8000f7a <HAL_GPIO_Init+0x1c6>
 8000ebc:	4646      	mov	r6, r8
 8000ebe:	402e      	ands	r6, r5
 8000ec0:	2580      	movs	r5, #128	; 0x80
 8000ec2:	4659      	mov	r1, fp
 8000ec4:	514e      	str	r6, [r1, r5]
 8000ec6:	0021      	movs	r1, r4
 8000ec8:	3301      	adds	r3, #1
 8000eca:	40d9      	lsrs	r1, r3
 8000ecc:	3202      	adds	r2, #2
 8000ece:	2900      	cmp	r1, #0
 8000ed0:	d182      	bne.n	8000dd8 <HAL_GPIO_Init+0x24>
 8000ed2:	b003      	add	sp, #12
 8000ed4:	bcf0      	pop	{r4, r5, r6, r7}
 8000ed6:	46bb      	mov	fp, r7
 8000ed8:	46b2      	mov	sl, r6
 8000eda:	46a9      	mov	r9, r5
 8000edc:	46a0      	mov	r8, r4
 8000ede:	bdf0      	pop	{r4, r5, r6, r7, pc}
 8000ee0:	6885      	ldr	r5, [r0, #8]
 8000ee2:	46a8      	mov	r8, r5
 8000ee4:	2503      	movs	r5, #3
 8000ee6:	4095      	lsls	r5, r2
 8000ee8:	43ef      	mvns	r7, r5
 8000eea:	9700      	str	r7, [sp, #0]
 8000eec:	4647      	mov	r7, r8
 8000eee:	43af      	bics	r7, r5
 8000ef0:	9d01      	ldr	r5, [sp, #4]
 8000ef2:	46b9      	mov	r9, r7
 8000ef4:	68ef      	ldr	r7, [r5, #12]
 8000ef6:	4097      	lsls	r7, r2
 8000ef8:	46b8      	mov	r8, r7
 8000efa:	464f      	mov	r7, r9
 8000efc:	4645      	mov	r5, r8
 8000efe:	432f      	orrs	r7, r5
 8000f00:	6087      	str	r7, [r0, #8]
 8000f02:	6845      	ldr	r5, [r0, #4]
 8000f04:	002f      	movs	r7, r5
 8000f06:	2501      	movs	r5, #1
 8000f08:	43b7      	bics	r7, r6
 8000f0a:	090e      	lsrs	r6, r1, #4
 8000f0c:	402e      	ands	r6, r5
 8000f0e:	409e      	lsls	r6, r3
 8000f10:	433e      	orrs	r6, r7
 8000f12:	6046      	str	r6, [r0, #4]
 8000f14:	68c6      	ldr	r6, [r0, #12]
 8000f16:	9d00      	ldr	r5, [sp, #0]
 8000f18:	402e      	ands	r6, r5
 8000f1a:	46b0      	mov	r8, r6
 8000f1c:	9d01      	ldr	r5, [sp, #4]
 8000f1e:	4647      	mov	r7, r8
 8000f20:	68ae      	ldr	r6, [r5, #8]
 8000f22:	4096      	lsls	r6, r2
 8000f24:	433e      	orrs	r6, r7
 8000f26:	60c6      	str	r6, [r0, #12]
 8000f28:	4667      	mov	r7, ip
 8000f2a:	4666      	mov	r6, ip
 8000f2c:	4096      	lsls	r6, r2
 8000f2e:	2f02      	cmp	r7, #2
 8000f30:	d000      	beq.n	8000f34 <HAL_GPIO_Init+0x180>
 8000f32:	e769      	b.n	8000e08 <HAL_GPIO_Init+0x54>
 8000f34:	08dd      	lsrs	r5, r3, #3
 8000f36:	00ad      	lsls	r5, r5, #2
 8000f38:	46ac      	mov	ip, r5
 8000f3a:	4484      	add	ip, r0
 8000f3c:	4665      	mov	r5, ip
 8000f3e:	6a2d      	ldr	r5, [r5, #32]
 8000f40:	46a9      	mov	r9, r5
 8000f42:	2507      	movs	r5, #7
 8000f44:	002f      	movs	r7, r5
 8000f46:	401f      	ands	r7, r3
 8000f48:	00bd      	lsls	r5, r7, #2
 8000f4a:	270f      	movs	r7, #15
 8000f4c:	46a8      	mov	r8, r5
 8000f4e:	40af      	lsls	r7, r5
 8000f50:	464d      	mov	r5, r9
 8000f52:	43bd      	bics	r5, r7
 8000f54:	4647      	mov	r7, r8
 8000f56:	46a9      	mov	r9, r5
 8000f58:	9d01      	ldr	r5, [sp, #4]
 8000f5a:	692d      	ldr	r5, [r5, #16]
 8000f5c:	40bd      	lsls	r5, r7
 8000f5e:	46a8      	mov	r8, r5
 8000f60:	464d      	mov	r5, r9
 8000f62:	4647      	mov	r7, r8
 8000f64:	433d      	orrs	r5, r7
 8000f66:	46a9      	mov	r9, r5
 8000f68:	4665      	mov	r5, ip
 8000f6a:	464f      	mov	r7, r9
 8000f6c:	622f      	str	r7, [r5, #32]
 8000f6e:	e74b      	b.n	8000e08 <HAL_GPIO_Init+0x54>
 8000f70:	2503      	movs	r5, #3
 8000f72:	4095      	lsls	r5, r2
 8000f74:	43ed      	mvns	r5, r5
 8000f76:	9500      	str	r5, [sp, #0]
 8000f78:	e7cc      	b.n	8000f14 <HAL_GPIO_Init+0x160>
 8000f7a:	4656      	mov	r6, sl
 8000f7c:	432e      	orrs	r6, r5
 8000f7e:	e79f      	b.n	8000ec0 <HAL_GPIO_Init+0x10c>
 8000f80:	4656      	mov	r6, sl
 8000f82:	4335      	orrs	r5, r6
 8000f84:	e791      	b.n	8000eaa <HAL_GPIO_Init+0xf6>
 8000f86:	4656      	mov	r6, sl
 8000f88:	4335      	orrs	r5, r6
 8000f8a:	e786      	b.n	8000e9a <HAL_GPIO_Init+0xe6>
 8000f8c:	4656      	mov	r6, sl
 8000f8e:	4335      	orrs	r5, r6
 8000f90:	e779      	b.n	8000e86 <HAL_GPIO_Init+0xd2>
 8000f92:	4667      	mov	r7, ip
 8000f94:	2603      	movs	r6, #3
 8000f96:	40be      	lsls	r6, r7
 8000f98:	464f      	mov	r7, r9
 8000f9a:	4337      	orrs	r7, r6
 8000f9c:	46b9      	mov	r9, r7
 8000f9e:	e765      	b.n	8000e6c <HAL_GPIO_Init+0xb8>
 8000fa0:	4666      	mov	r6, ip
 8000fa2:	2701      	movs	r7, #1
 8000fa4:	40b7      	lsls	r7, r6
 8000fa6:	003e      	movs	r6, r7
 8000fa8:	464f      	mov	r7, r9
 8000faa:	4337      	orrs	r7, r6
 8000fac:	46b9      	mov	r9, r7
 8000fae:	e75d      	b.n	8000e6c <HAL_GPIO_Init+0xb8>
 8000fb0:	4667      	mov	r7, ip
 8000fb2:	2602      	movs	r6, #2
 8000fb4:	40be      	lsls	r6, r7
 8000fb6:	464f      	mov	r7, r9
 8000fb8:	4337      	orrs	r7, r6
 8000fba:	46b9      	mov	r9, r7
 8000fbc:	e756      	b.n	8000e6c <HAL_GPIO_Init+0xb8>
 8000fbe:	46c0      	nop			; (mov r8, r8)
 8000fc0:	40021800 	.word	0x40021800
 8000fc4:	50000400 	.word	0x50000400
 8000fc8:	50000800 	.word	0x50000800
 8000fcc:	50000c00 	.word	0x50000c00

08000fd0 <HAL_GPIO_WritePin>:
 8000fd0:	2a00      	cmp	r2, #0
 8000fd2:	d001      	beq.n	8000fd8 <HAL_GPIO_WritePin+0x8>
 8000fd4:	6181      	str	r1, [r0, #24]
 8000fd6:	4770      	bx	lr
 8000fd8:	6281      	str	r1, [r0, #40]	; 0x28
 8000fda:	e7fc      	b.n	8000fd6 <HAL_GPIO_WritePin+0x6>

08000fdc <I2C_WaitOnTXISFlagUntilTimeout>:
 8000fdc:	b5f8      	push	{r3, r4, r5, r6, r7, lr}
 8000fde:	4657      	mov	r7, sl
 8000fe0:	46de      	mov	lr, fp
 8000fe2:	464e      	mov	r6, r9
 8000fe4:	4645      	mov	r5, r8
 8000fe6:	0004      	movs	r4, r0
 8000fe8:	b5e0      	push	{r5, r6, r7, lr}
 8000fea:	4692      	mov	sl, r2
 8000fec:	000f      	movs	r7, r1
 8000fee:	6823      	ldr	r3, [r4, #0]
 8000ff0:	699a      	ldr	r2, [r3, #24]
 8000ff2:	0792      	lsls	r2, r2, #30
 8000ff4:	d500      	bpl.n	8000ff8 <I2C_WaitOnTXISFlagUntilTimeout+0x1c>
 8000ff6:	e0ca      	b.n	800118e <I2C_WaitOnTXISFlagUntilTimeout+0x1b2>
 8000ff8:	2210      	movs	r2, #16
 8000ffa:	0015      	movs	r5, r2
 8000ffc:	6999      	ldr	r1, [r3, #24]
 8000ffe:	400d      	ands	r5, r1
 8001000:	420a      	tst	r2, r1
 8001002:	d058      	beq.n	80010b6 <I2C_WaitOnTXISFlagUntilTimeout+0xda>
 8001004:	61da      	str	r2, [r3, #28]
 8001006:	2200      	movs	r2, #0
 8001008:	4656      	mov	r6, sl
 800100a:	4691      	mov	r9, r2
 800100c:	2520      	movs	r5, #32
 800100e:	1c7a      	adds	r2, r7, #1
 8001010:	d158      	bne.n	80010c4 <I2C_WaitOnTXISFlagUntilTimeout+0xe8>
 8001012:	699a      	ldr	r2, [r3, #24]
 8001014:	0692      	lsls	r2, r2, #26
 8001016:	d500      	bpl.n	800101a <I2C_WaitOnTXISFlagUntilTimeout+0x3e>
 8001018:	e0a5      	b.n	8001166 <I2C_WaitOnTXISFlagUntilTimeout+0x18a>
 800101a:	464a      	mov	r2, r9
 800101c:	2a00      	cmp	r2, #0
 800101e:	d000      	beq.n	8001022 <I2C_WaitOnTXISFlagUntilTimeout+0x46>
 8001020:	e0a5      	b.n	800116e <I2C_WaitOnTXISFlagUntilTimeout+0x192>
 8001022:	2120      	movs	r1, #32
 8001024:	699a      	ldr	r2, [r3, #24]
 8001026:	4211      	tst	r1, r2
 8001028:	d0fc      	beq.n	8001024 <I2C_WaitOnTXISFlagUntilTimeout+0x48>
 800102a:	2220      	movs	r2, #32
 800102c:	61da      	str	r2, [r3, #28]
 800102e:	3a1b      	subs	r2, #27
 8001030:	4694      	mov	ip, r2
 8001032:	3a04      	subs	r2, #4
 8001034:	210d      	movs	r1, #13
 8001036:	2607      	movs	r6, #7
 8001038:	2504      	movs	r5, #4
 800103a:	4691      	mov	r9, r2
 800103c:	2080      	movs	r0, #128	; 0x80
 800103e:	699a      	ldr	r2, [r3, #24]
 8001040:	0040      	lsls	r0, r0, #1
 8001042:	4202      	tst	r2, r0
 8001044:	d02b      	beq.n	800109e <I2C_WaitOnTXISFlagUntilTimeout+0xc2>
 8001046:	61d8      	str	r0, [r3, #28]
 8001048:	0550      	lsls	r0, r2, #21
 800104a:	d42c      	bmi.n	80010a6 <I2C_WaitOnTXISFlagUntilTimeout+0xca>
 800104c:	4661      	mov	r1, ip
 800104e:	0592      	lsls	r2, r2, #22
 8001050:	d503      	bpl.n	800105a <I2C_WaitOnTXISFlagUntilTimeout+0x7e>
 8001052:	0031      	movs	r1, r6
 8001054:	2280      	movs	r2, #128	; 0x80
 8001056:	0092      	lsls	r2, r2, #2
 8001058:	61da      	str	r2, [r3, #28]
 800105a:	699a      	ldr	r2, [r3, #24]
 800105c:	0792      	lsls	r2, r2, #30
 800105e:	d501      	bpl.n	8001064 <I2C_WaitOnTXISFlagUntilTimeout+0x88>
 8001060:	2200      	movs	r2, #0
 8001062:	629a      	str	r2, [r3, #40]	; 0x28
 8001064:	2201      	movs	r2, #1
 8001066:	6998      	ldr	r0, [r3, #24]
 8001068:	4202      	tst	r2, r0
 800106a:	d102      	bne.n	8001072 <I2C_WaitOnTXISFlagUntilTimeout+0x96>
 800106c:	6998      	ldr	r0, [r3, #24]
 800106e:	4302      	orrs	r2, r0
 8001070:	619a      	str	r2, [r3, #24]
 8001072:	685a      	ldr	r2, [r3, #4]
 8001074:	4848      	ldr	r0, [pc, #288]	; (8001198 <I2C_WaitOnTXISFlagUntilTimeout+0x1bc>)
 8001076:	4002      	ands	r2, r0
 8001078:	605a      	str	r2, [r3, #4]
 800107a:	6c63      	ldr	r3, [r4, #68]	; 0x44
 800107c:	2220      	movs	r2, #32
 800107e:	4319      	orrs	r1, r3
 8001080:	2341      	movs	r3, #65	; 0x41
 8001082:	6461      	str	r1, [r4, #68]	; 0x44
 8001084:	54e2      	strb	r2, [r4, r3]
 8001086:	2300      	movs	r3, #0
 8001088:	2001      	movs	r0, #1
 800108a:	3222      	adds	r2, #34	; 0x22
 800108c:	54a3      	strb	r3, [r4, r2]
 800108e:	3a02      	subs	r2, #2
 8001090:	54a3      	strb	r3, [r4, r2]
 8001092:	bcf0      	pop	{r4, r5, r6, r7}
 8001094:	46bb      	mov	fp, r7
 8001096:	46b2      	mov	sl, r6
 8001098:	46a9      	mov	r9, r5
 800109a:	46a0      	mov	r8, r4
 800109c:	bdf8      	pop	{r3, r4, r5, r6, r7, pc}
 800109e:	0551      	lsls	r1, r2, #21
 80010a0:	d547      	bpl.n	8001132 <I2C_WaitOnTXISFlagUntilTimeout+0x156>
 80010a2:	2108      	movs	r1, #8
 80010a4:	4329      	orrs	r1, r5
 80010a6:	2080      	movs	r0, #128	; 0x80
 80010a8:	00c0      	lsls	r0, r0, #3
 80010aa:	61d8      	str	r0, [r3, #28]
 80010ac:	0592      	lsls	r2, r2, #22
 80010ae:	d5d4      	bpl.n	800105a <I2C_WaitOnTXISFlagUntilTimeout+0x7e>
 80010b0:	2202      	movs	r2, #2
 80010b2:	4311      	orrs	r1, r2
 80010b4:	e7ce      	b.n	8001054 <I2C_WaitOnTXISFlagUntilTimeout+0x78>
 80010b6:	2201      	movs	r2, #1
 80010b8:	4694      	mov	ip, r2
 80010ba:	2200      	movs	r2, #0
 80010bc:	2109      	movs	r1, #9
 80010be:	2603      	movs	r6, #3
 80010c0:	4691      	mov	r9, r2
 80010c2:	e7bb      	b.n	800103c <I2C_WaitOnTXISFlagUntilTimeout+0x60>
 80010c4:	699a      	ldr	r2, [r3, #24]
 80010c6:	4215      	tst	r5, r2
 80010c8:	d14d      	bne.n	8001166 <I2C_WaitOnTXISFlagUntilTimeout+0x18a>
 80010ca:	464a      	mov	r2, r9
 80010cc:	2a00      	cmp	r2, #0
 80010ce:	d14e      	bne.n	800116e <I2C_WaitOnTXISFlagUntilTimeout+0x192>
 80010d0:	f7ff fe12 	bl	8000cf8 <HAL_GetTick>
 80010d4:	6823      	ldr	r3, [r4, #0]
 80010d6:	1b80      	subs	r0, r0, r6
 80010d8:	4287      	cmp	r7, r0
 80010da:	d301      	bcc.n	80010e0 <I2C_WaitOnTXISFlagUntilTimeout+0x104>
 80010dc:	2f00      	cmp	r7, #0
 80010de:	d196      	bne.n	800100e <I2C_WaitOnTXISFlagUntilTimeout+0x32>
 80010e0:	2242      	movs	r2, #66	; 0x42
 80010e2:	6858      	ldr	r0, [r3, #4]
 80010e4:	5ca2      	ldrb	r2, [r4, r2]
 80010e6:	6999      	ldr	r1, [r3, #24]
 80010e8:	b2d2      	uxtb	r2, r2
 80010ea:	0409      	lsls	r1, r1, #16
 80010ec:	d503      	bpl.n	80010f6 <I2C_WaitOnTXISFlagUntilTimeout+0x11a>
 80010ee:	2180      	movs	r1, #128	; 0x80
 80010f0:	01c9      	lsls	r1, r1, #7
 80010f2:	4208      	tst	r0, r1
 80010f4:	d041      	beq.n	800117a <I2C_WaitOnTXISFlagUntilTimeout+0x19e>
 80010f6:	2242      	movs	r2, #66	; 0x42
 80010f8:	4693      	mov	fp, r2
 80010fa:	e000      	b.n	80010fe <I2C_WaitOnTXISFlagUntilTimeout+0x122>
 80010fc:	6823      	ldr	r3, [r4, #0]
 80010fe:	0029      	movs	r1, r5
 8001100:	699a      	ldr	r2, [r3, #24]
 8001102:	4011      	ands	r1, r2
 8001104:	4688      	mov	r8, r1
 8001106:	4215      	tst	r5, r2
 8001108:	d000      	beq.n	800110c <I2C_WaitOnTXISFlagUntilTimeout+0x130>
 800110a:	e780      	b.n	800100e <I2C_WaitOnTXISFlagUntilTimeout+0x32>
 800110c:	f7ff fdf4 	bl	8000cf8 <HAL_GetTick>
 8001110:	1b80      	subs	r0, r0, r6
 8001112:	2819      	cmp	r0, #25
 8001114:	d9f2      	bls.n	80010fc <I2C_WaitOnTXISFlagUntilTimeout+0x120>
 8001116:	6c63      	ldr	r3, [r4, #68]	; 0x44
 8001118:	4642      	mov	r2, r8
 800111a:	432b      	orrs	r3, r5
 800111c:	6463      	str	r3, [r4, #68]	; 0x44
 800111e:	2341      	movs	r3, #65	; 0x41
 8001120:	54e5      	strb	r5, [r4, r3]
 8001122:	465b      	mov	r3, fp
 8001124:	54e2      	strb	r2, [r4, r3]
 8001126:	2340      	movs	r3, #64	; 0x40
 8001128:	54e2      	strb	r2, [r4, r3]
 800112a:	2201      	movs	r2, #1
 800112c:	6823      	ldr	r3, [r4, #0]
 800112e:	4691      	mov	r9, r2
 8001130:	e7e5      	b.n	80010fe <I2C_WaitOnTXISFlagUntilTimeout+0x122>
 8001132:	0592      	lsls	r2, r2, #22
 8001134:	d502      	bpl.n	800113c <I2C_WaitOnTXISFlagUntilTimeout+0x160>
 8001136:	2102      	movs	r1, #2
 8001138:	4329      	orrs	r1, r5
 800113a:	e78b      	b.n	8001054 <I2C_WaitOnTXISFlagUntilTimeout+0x78>
 800113c:	464a      	mov	r2, r9
 800113e:	2a00      	cmp	r2, #0
 8001140:	d127      	bne.n	8001192 <I2C_WaitOnTXISFlagUntilTimeout+0x1b6>
 8001142:	1c7a      	adds	r2, r7, #1
 8001144:	d100      	bne.n	8001148 <I2C_WaitOnTXISFlagUntilTimeout+0x16c>
 8001146:	e753      	b.n	8000ff0 <I2C_WaitOnTXISFlagUntilTimeout+0x14>
 8001148:	f7ff fdd6 	bl	8000cf8 <HAL_GetTick>
 800114c:	4653      	mov	r3, sl
 800114e:	1ac0      	subs	r0, r0, r3
 8001150:	42b8      	cmp	r0, r7
 8001152:	d802      	bhi.n	800115a <I2C_WaitOnTXISFlagUntilTimeout+0x17e>
 8001154:	2f00      	cmp	r7, #0
 8001156:	d000      	beq.n	800115a <I2C_WaitOnTXISFlagUntilTimeout+0x17e>
 8001158:	e749      	b.n	8000fee <I2C_WaitOnTXISFlagUntilTimeout+0x12>
 800115a:	2220      	movs	r2, #32
 800115c:	6c63      	ldr	r3, [r4, #68]	; 0x44
 800115e:	4313      	orrs	r3, r2
 8001160:	6463      	str	r3, [r4, #68]	; 0x44
 8001162:	2341      	movs	r3, #65	; 0x41
 8001164:	e78e      	b.n	8001084 <I2C_WaitOnTXISFlagUntilTimeout+0xa8>
 8001166:	464a      	mov	r2, r9
 8001168:	2a00      	cmp	r2, #0
 800116a:	d100      	bne.n	800116e <I2C_WaitOnTXISFlagUntilTimeout+0x192>
 800116c:	e75d      	b.n	800102a <I2C_WaitOnTXISFlagUntilTimeout+0x4e>
 800116e:	2205      	movs	r2, #5
 8001170:	210d      	movs	r1, #13
 8001172:	2607      	movs	r6, #7
 8001174:	4694      	mov	ip, r2
 8001176:	2504      	movs	r5, #4
 8001178:	e760      	b.n	800103c <I2C_WaitOnTXISFlagUntilTimeout+0x60>
 800117a:	2a20      	cmp	r2, #32
 800117c:	d0bb      	beq.n	80010f6 <I2C_WaitOnTXISFlagUntilTimeout+0x11a>
 800117e:	685a      	ldr	r2, [r3, #4]
 8001180:	4311      	orrs	r1, r2
 8001182:	6059      	str	r1, [r3, #4]
 8001184:	f7ff fdb8 	bl	8000cf8 <HAL_GetTick>
 8001188:	6823      	ldr	r3, [r4, #0]
 800118a:	0006      	movs	r6, r0
 800118c:	e7b3      	b.n	80010f6 <I2C_WaitOnTXISFlagUntilTimeout+0x11a>
 800118e:	2000      	movs	r0, #0
 8001190:	e77f      	b.n	8001092 <I2C_WaitOnTXISFlagUntilTimeout+0xb6>
 8001192:	0029      	movs	r1, r5
 8001194:	e761      	b.n	800105a <I2C_WaitOnTXISFlagUntilTimeout+0x7e>
 8001196:	46c0      	nop			; (mov r8, r8)
 8001198:	fe00e800 	.word	0xfe00e800

0800119c <I2C_WaitOnSTOPFlagUntilTimeout>:
 800119c:	b5f8      	push	{r3, r4, r5, r6, r7, lr}
 800119e:	4657      	mov	r7, sl
 80011a0:	464e      	mov	r6, r9
 80011a2:	46de      	mov	lr, fp
 80011a4:	4645      	mov	r5, r8
 80011a6:	0004      	movs	r4, r0
 80011a8:	b5e0      	push	{r5, r6, r7, lr}
 80011aa:	4692      	mov	sl, r2
 80011ac:	000e      	movs	r6, r1
 80011ae:	6823      	ldr	r3, [r4, #0]
 80011b0:	699a      	ldr	r2, [r3, #24]
 80011b2:	0692      	lsls	r2, r2, #26
 80011b4:	d500      	bpl.n	80011b8 <I2C_WaitOnSTOPFlagUntilTimeout+0x1c>
 80011b6:	e0c7      	b.n	8001348 <I2C_WaitOnSTOPFlagUntilTimeout+0x1ac>
 80011b8:	2210      	movs	r2, #16
 80011ba:	0015      	movs	r5, r2
 80011bc:	6999      	ldr	r1, [r3, #24]
 80011be:	400d      	ands	r5, r1
 80011c0:	420a      	tst	r2, r1
 80011c2:	d058      	beq.n	8001276 <I2C_WaitOnSTOPFlagUntilTimeout+0xda>
 80011c4:	61da      	str	r2, [r3, #28]
 80011c6:	2200      	movs	r2, #0
 80011c8:	4657      	mov	r7, sl
 80011ca:	4691      	mov	r9, r2
 80011cc:	2520      	movs	r5, #32
 80011ce:	1c72      	adds	r2, r6, #1
 80011d0:	d158      	bne.n	8001284 <I2C_WaitOnSTOPFlagUntilTimeout+0xe8>
 80011d2:	699a      	ldr	r2, [r3, #24]
 80011d4:	0692      	lsls	r2, r2, #26
 80011d6:	d500      	bpl.n	80011da <I2C_WaitOnSTOPFlagUntilTimeout+0x3e>
 80011d8:	e0a2      	b.n	8001320 <I2C_WaitOnSTOPFlagUntilTimeout+0x184>
 80011da:	464a      	mov	r2, r9
 80011dc:	2a00      	cmp	r2, #0
 80011de:	d000      	beq.n	80011e2 <I2C_WaitOnSTOPFlagUntilTimeout+0x46>
 80011e0:	e0a2      	b.n	8001328 <I2C_WaitOnSTOPFlagUntilTimeout+0x18c>
 80011e2:	2120      	movs	r1, #32
 80011e4:	699a      	ldr	r2, [r3, #24]
 80011e6:	4211      	tst	r1, r2
 80011e8:	d0fc      	beq.n	80011e4 <I2C_WaitOnSTOPFlagUntilTimeout+0x48>
 80011ea:	2220      	movs	r2, #32
 80011ec:	61da      	str	r2, [r3, #28]
 80011ee:	3a1b      	subs	r2, #27
 80011f0:	4694      	mov	ip, r2
 80011f2:	3a04      	subs	r2, #4
 80011f4:	210d      	movs	r1, #13
 80011f6:	2707      	movs	r7, #7
 80011f8:	2504      	movs	r5, #4
 80011fa:	4691      	mov	r9, r2
 80011fc:	2080      	movs	r0, #128	; 0x80
 80011fe:	699a      	ldr	r2, [r3, #24]
 8001200:	0040      	lsls	r0, r0, #1
 8001202:	4202      	tst	r2, r0
 8001204:	d02b      	beq.n	800125e <I2C_WaitOnSTOPFlagUntilTimeout+0xc2>
 8001206:	61d8      	str	r0, [r3, #28]
 8001208:	0550      	lsls	r0, r2, #21
 800120a:	d42c      	bmi.n	8001266 <I2C_WaitOnSTOPFlagUntilTimeout+0xca>
 800120c:	4661      	mov	r1, ip
 800120e:	0592      	lsls	r2, r2, #22
 8001210:	d503      	bpl.n	800121a <I2C_WaitOnSTOPFlagUntilTimeout+0x7e>
 8001212:	0039      	movs	r1, r7
 8001214:	2280      	movs	r2, #128	; 0x80
 8001216:	0092      	lsls	r2, r2, #2
 8001218:	61da      	str	r2, [r3, #28]
 800121a:	699a      	ldr	r2, [r3, #24]
 800121c:	0792      	lsls	r2, r2, #30
 800121e:	d501      	bpl.n	8001224 <I2C_WaitOnSTOPFlagUntilTimeout+0x88>
 8001220:	2200      	movs	r2, #0
 8001222:	629a      	str	r2, [r3, #40]	; 0x28
 8001224:	2201      	movs	r2, #1
 8001226:	6998      	ldr	r0, [r3, #24]
 8001228:	4202      	tst	r2, r0
 800122a:	d102      	bne.n	8001232 <I2C_WaitOnSTOPFlagUntilTimeout+0x96>
 800122c:	6998      	ldr	r0, [r3, #24]
 800122e:	4302      	orrs	r2, r0
 8001230:	619a      	str	r2, [r3, #24]
 8001232:	685a      	ldr	r2, [r3, #4]
 8001234:	4846      	ldr	r0, [pc, #280]	; (8001350 <I2C_WaitOnSTOPFlagUntilTimeout+0x1b4>)
 8001236:	4002      	ands	r2, r0
 8001238:	605a      	str	r2, [r3, #4]
 800123a:	6c63      	ldr	r3, [r4, #68]	; 0x44
 800123c:	2220      	movs	r2, #32
 800123e:	4319      	orrs	r1, r3
 8001240:	2341      	movs	r3, #65	; 0x41
 8001242:	6461      	str	r1, [r4, #68]	; 0x44
 8001244:	54e2      	strb	r2, [r4, r3]
 8001246:	2300      	movs	r3, #0
 8001248:	2001      	movs	r0, #1
 800124a:	3222      	adds	r2, #34	; 0x22
 800124c:	54a3      	strb	r3, [r4, r2]
 800124e:	3a02      	subs	r2, #2
 8001250:	54a3      	strb	r3, [r4, r2]
 8001252:	bcf0      	pop	{r4, r5, r6, r7}
 8001254:	46bb      	mov	fp, r7
 8001256:	46b2      	mov	sl, r6
 8001258:	46a9      	mov	r9, r5
 800125a:	46a0      	mov	r8, r4
 800125c:	bdf8      	pop	{r3, r4, r5, r6, r7, pc}
 800125e:	0551      	lsls	r1, r2, #21
 8001260:	d547      	bpl.n	80012f2 <I2C_WaitOnSTOPFlagUntilTimeout+0x156>
 8001262:	2108      	movs	r1, #8
 8001264:	4329      	orrs	r1, r5
 8001266:	2080      	movs	r0, #128	; 0x80
 8001268:	00c0      	lsls	r0, r0, #3
 800126a:	61d8      	str	r0, [r3, #28]
 800126c:	0592      	lsls	r2, r2, #22
 800126e:	d5d4      	bpl.n	800121a <I2C_WaitOnSTOPFlagUntilTimeout+0x7e>
 8001270:	2202      	movs	r2, #2
 8001272:	4311      	orrs	r1, r2
 8001274:	e7ce      	b.n	8001214 <I2C_WaitOnSTOPFlagUntilTimeout+0x78>
 8001276:	2201      	movs	r2, #1
 8001278:	4694      	mov	ip, r2
 800127a:	2200      	movs	r2, #0
 800127c:	2109      	movs	r1, #9
 800127e:	2703      	movs	r7, #3
 8001280:	4691      	mov	r9, r2
 8001282:	e7bb      	b.n	80011fc <I2C_WaitOnSTOPFlagUntilTimeout+0x60>
 8001284:	699a      	ldr	r2, [r3, #24]
 8001286:	4215      	tst	r5, r2
 8001288:	d14a      	bne.n	8001320 <I2C_WaitOnSTOPFlagUntilTimeout+0x184>
 800128a:	464a      	mov	r2, r9
 800128c:	2a00      	cmp	r2, #0
 800128e:	d14b      	bne.n	8001328 <I2C_WaitOnSTOPFlagUntilTimeout+0x18c>
 8001290:	f7ff fd32 	bl	8000cf8 <HAL_GetTick>
 8001294:	6823      	ldr	r3, [r4, #0]
 8001296:	1bc0      	subs	r0, r0, r7
 8001298:	4286      	cmp	r6, r0
 800129a:	d301      	bcc.n	80012a0 <I2C_WaitOnSTOPFlagUntilTimeout+0x104>
 800129c:	2e00      	cmp	r6, #0
 800129e:	d196      	bne.n	80011ce <I2C_WaitOnSTOPFlagUntilTimeout+0x32>
 80012a0:	2242      	movs	r2, #66	; 0x42
 80012a2:	6858      	ldr	r0, [r3, #4]
 80012a4:	5ca2      	ldrb	r2, [r4, r2]
 80012a6:	6999      	ldr	r1, [r3, #24]
 80012a8:	b2d2      	uxtb	r2, r2
 80012aa:	0409      	lsls	r1, r1, #16
 80012ac:	d503      	bpl.n	80012b6 <I2C_WaitOnSTOPFlagUntilTimeout+0x11a>
 80012ae:	2180      	movs	r1, #128	; 0x80
 80012b0:	01c9      	lsls	r1, r1, #7
 80012b2:	4208      	tst	r0, r1
 80012b4:	d03e      	beq.n	8001334 <I2C_WaitOnSTOPFlagUntilTimeout+0x198>
 80012b6:	2242      	movs	r2, #66	; 0x42
 80012b8:	4693      	mov	fp, r2
 80012ba:	e000      	b.n	80012be <I2C_WaitOnSTOPFlagUntilTimeout+0x122>
 80012bc:	6823      	ldr	r3, [r4, #0]
 80012be:	0029      	movs	r1, r5
 80012c0:	699a      	ldr	r2, [r3, #24]
 80012c2:	4011      	ands	r1, r2
 80012c4:	4688      	mov	r8, r1
 80012c6:	4215      	tst	r5, r2
 80012c8:	d000      	beq.n	80012cc <I2C_WaitOnSTOPFlagUntilTimeout+0x130>
 80012ca:	e780      	b.n	80011ce <I2C_WaitOnSTOPFlagUntilTimeout+0x32>
 80012cc:	f7ff fd14 	bl	8000cf8 <HAL_GetTick>
 80012d0:	1bc0      	subs	r0, r0, r7
 80012d2:	2819      	cmp	r0, #25
 80012d4:	d9f2      	bls.n	80012bc <I2C_WaitOnSTOPFlagUntilTimeout+0x120>
 80012d6:	6c63      	ldr	r3, [r4, #68]	; 0x44
 80012d8:	4642      	mov	r2, r8
 80012da:	432b      	orrs	r3, r5
 80012dc:	6463      	str	r3, [r4, #68]	; 0x44
 80012de:	2341      	movs	r3, #65	; 0x41
 80012e0:	54e5      	strb	r5, [r4, r3]
 80012e2:	465b      	mov	r3, fp
 80012e4:	54e2      	strb	r2, [r4, r3]
 80012e6:	2340      	movs	r3, #64	; 0x40
 80012e8:	54e2      	strb	r2, [r4, r3]
 80012ea:	2201      	movs	r2, #1
 80012ec:	6823      	ldr	r3, [r4, #0]
 80012ee:	4691      	mov	r9, r2
 80012f0:	e7e5      	b.n	80012be <I2C_WaitOnSTOPFlagUntilTimeout+0x122>
 80012f2:	0592      	lsls	r2, r2, #22
 80012f4:	d502      	bpl.n	80012fc <I2C_WaitOnSTOPFlagUntilTimeout+0x160>
 80012f6:	2102      	movs	r1, #2
 80012f8:	4329      	orrs	r1, r5
 80012fa:	e78b      	b.n	8001214 <I2C_WaitOnSTOPFlagUntilTimeout+0x78>
 80012fc:	464a      	mov	r2, r9
 80012fe:	2a00      	cmp	r2, #0
 8001300:	d124      	bne.n	800134c <I2C_WaitOnSTOPFlagUntilTimeout+0x1b0>
 8001302:	f7ff fcf9 	bl	8000cf8 <HAL_GetTick>
 8001306:	4653      	mov	r3, sl
 8001308:	1ac0      	subs	r0, r0, r3
 800130a:	42b0      	cmp	r0, r6
 800130c:	d802      	bhi.n	8001314 <I2C_WaitOnSTOPFlagUntilTimeout+0x178>
 800130e:	2e00      	cmp	r6, #0
 8001310:	d000      	beq.n	8001314 <I2C_WaitOnSTOPFlagUntilTimeout+0x178>
 8001312:	e74c      	b.n	80011ae <I2C_WaitOnSTOPFlagUntilTimeout+0x12>
 8001314:	2220      	movs	r2, #32
 8001316:	6c63      	ldr	r3, [r4, #68]	; 0x44
 8001318:	4313      	orrs	r3, r2
 800131a:	6463      	str	r3, [r4, #68]	; 0x44
 800131c:	2341      	movs	r3, #65	; 0x41
 800131e:	e791      	b.n	8001244 <I2C_WaitOnSTOPFlagUntilTimeout+0xa8>
 8001320:	464a      	mov	r2, r9
 8001322:	2a00      	cmp	r2, #0
 8001324:	d100      	bne.n	8001328 <I2C_WaitOnSTOPFlagUntilTimeout+0x18c>
 8001326:	e760      	b.n	80011ea <I2C_WaitOnSTOPFlagUntilTimeout+0x4e>
 8001328:	2205      	movs	r2, #5
 800132a:	210d      	movs	r1, #13
 800132c:	2707      	movs	r7, #7
 800132e:	4694      	mov	ip, r2
 8001330:	2504      	movs	r5, #4
 8001332:	e763      	b.n	80011fc <I2C_WaitOnSTOPFlagUntilTimeout+0x60>
 8001334:	2a20      	cmp	r2, #32
 8001336:	d0be      	beq.n	80012b6 <I2C_WaitOnSTOPFlagUntilTimeout+0x11a>
 8001338:	685a      	ldr	r2, [r3, #4]
 800133a:	4311      	orrs	r1, r2
 800133c:	6059      	str	r1, [r3, #4]
 800133e:	f7ff fcdb 	bl	8000cf8 <HAL_GetTick>
 8001342:	6823      	ldr	r3, [r4, #0]
 8001344:	0007      	movs	r7, r0
 8001346:	e7b6      	b.n	80012b6 <I2C_WaitOnSTOPFlagUntilTimeout+0x11a>
 8001348:	2000      	movs	r0, #0
 800134a:	e782      	b.n	8001252 <I2C_WaitOnSTOPFlagUntilTimeout+0xb6>
 800134c:	0029      	movs	r1, r5
 800134e:	e764      	b.n	800121a <I2C_WaitOnSTOPFlagUntilTimeout+0x7e>
 8001350:	fe00e800 	.word	0xfe00e800

08001354 <HAL_I2C_Init>:
 8001354:	b510      	push	{r4, lr}
 8001356:	1e04      	subs	r4, r0, #0
 8001358:	d04d      	beq.n	80013f6 <HAL_I2C_Init+0xa2>
 800135a:	2341      	movs	r3, #65	; 0x41
 800135c:	5cc3      	ldrb	r3, [r0, r3]
 800135e:	b2da      	uxtb	r2, r3
 8001360:	2b00      	cmp	r3, #0
 8001362:	d043      	beq.n	80013ec <HAL_I2C_Init+0x98>
 8001364:	2341      	movs	r3, #65	; 0x41
 8001366:	2224      	movs	r2, #36	; 0x24
 8001368:	2101      	movs	r1, #1
 800136a:	54e2      	strb	r2, [r4, r3]
 800136c:	6823      	ldr	r3, [r4, #0]
 800136e:	681a      	ldr	r2, [r3, #0]
 8001370:	438a      	bics	r2, r1
 8001372:	601a      	str	r2, [r3, #0]
 8001374:	6861      	ldr	r1, [r4, #4]
 8001376:	4a21      	ldr	r2, [pc, #132]	; (80013fc <HAL_I2C_Init+0xa8>)
 8001378:	400a      	ands	r2, r1
 800137a:	611a      	str	r2, [r3, #16]
 800137c:	689a      	ldr	r2, [r3, #8]
 800137e:	4920      	ldr	r1, [pc, #128]	; (8001400 <HAL_I2C_Init+0xac>)
 8001380:	400a      	ands	r2, r1
 8001382:	609a      	str	r2, [r3, #8]
 8001384:	68e2      	ldr	r2, [r4, #12]
 8001386:	2a01      	cmp	r2, #1
 8001388:	d02a      	beq.n	80013e0 <HAL_I2C_Init+0x8c>
 800138a:	2184      	movs	r1, #132	; 0x84
 800138c:	68a0      	ldr	r0, [r4, #8]
 800138e:	0209      	lsls	r1, r1, #8
 8001390:	4301      	orrs	r1, r0
 8001392:	6099      	str	r1, [r3, #8]
 8001394:	2a02      	cmp	r2, #2
 8001396:	d102      	bne.n	800139e <HAL_I2C_Init+0x4a>
 8001398:	2280      	movs	r2, #128	; 0x80
 800139a:	0112      	lsls	r2, r2, #4
 800139c:	605a      	str	r2, [r3, #4]
 800139e:	6859      	ldr	r1, [r3, #4]
 80013a0:	4a18      	ldr	r2, [pc, #96]	; (8001404 <HAL_I2C_Init+0xb0>)
 80013a2:	2000      	movs	r0, #0
 80013a4:	430a      	orrs	r2, r1
 80013a6:	605a      	str	r2, [r3, #4]
 80013a8:	68da      	ldr	r2, [r3, #12]
 80013aa:	4915      	ldr	r1, [pc, #84]	; (8001400 <HAL_I2C_Init+0xac>)
 80013ac:	400a      	ands	r2, r1
 80013ae:	60da      	str	r2, [r3, #12]
 80013b0:	6961      	ldr	r1, [r4, #20]
 80013b2:	6922      	ldr	r2, [r4, #16]
 80013b4:	430a      	orrs	r2, r1
 80013b6:	69a1      	ldr	r1, [r4, #24]
 80013b8:	0209      	lsls	r1, r1, #8
 80013ba:	430a      	orrs	r2, r1
 80013bc:	60da      	str	r2, [r3, #12]
 80013be:	6a21      	ldr	r1, [r4, #32]
 80013c0:	69e2      	ldr	r2, [r4, #28]
 80013c2:	430a      	orrs	r2, r1
 80013c4:	2101      	movs	r1, #1
 80013c6:	601a      	str	r2, [r3, #0]
 80013c8:	681a      	ldr	r2, [r3, #0]
 80013ca:	430a      	orrs	r2, r1
 80013cc:	601a      	str	r2, [r3, #0]
 80013ce:	2300      	movs	r3, #0
 80013d0:	2241      	movs	r2, #65	; 0x41
 80013d2:	311f      	adds	r1, #31
 80013d4:	6463      	str	r3, [r4, #68]	; 0x44
 80013d6:	54a1      	strb	r1, [r4, r2]
 80013d8:	3201      	adds	r2, #1
 80013da:	6323      	str	r3, [r4, #48]	; 0x30
 80013dc:	54a3      	strb	r3, [r4, r2]
 80013de:	bd10      	pop	{r4, pc}
 80013e0:	2280      	movs	r2, #128	; 0x80
 80013e2:	68a1      	ldr	r1, [r4, #8]
 80013e4:	0212      	lsls	r2, r2, #8
 80013e6:	430a      	orrs	r2, r1
 80013e8:	609a      	str	r2, [r3, #8]
 80013ea:	e7d8      	b.n	800139e <HAL_I2C_Init+0x4a>
 80013ec:	3340      	adds	r3, #64	; 0x40
 80013ee:	54c2      	strb	r2, [r0, r3]
 80013f0:	f7ff fb7e 	bl	8000af0 <HAL_I2C_MspInit>
 80013f4:	e7b6      	b.n	8001364 <HAL_I2C_Init+0x10>
 80013f6:	2001      	movs	r0, #1
 80013f8:	e7f1      	b.n	80013de <HAL_I2C_Init+0x8a>
 80013fa:	46c0      	nop			; (mov r8, r8)
 80013fc:	f0ffffff 	.word	0xf0ffffff
 8001400:	ffff7fff 	.word	0xffff7fff
 8001404:	02008000 	.word	0x02008000

08001408 <HAL_I2C_Mem_Write>:
 8001408:	b5f8      	push	{r3, r4, r5, r6, r7, lr}
 800140a:	4657      	mov	r7, sl
 800140c:	46de      	mov	lr, fp
 800140e:	464e      	mov	r6, r9
 8001410:	4645      	mov	r5, r8
 8001412:	b5e0      	push	{r5, r6, r7, lr}
 8001414:	4699      	mov	r9, r3
 8001416:	ab0a      	add	r3, sp, #40	; 0x28
 8001418:	4690      	mov	r8, r2
 800141a:	cb04      	ldmia	r3!, {r2}
 800141c:	0004      	movs	r4, r0
 800141e:	881b      	ldrh	r3, [r3, #0]
 8001420:	000f      	movs	r7, r1
 8001422:	469b      	mov	fp, r3
 8001424:	2341      	movs	r3, #65	; 0x41
 8001426:	5cc3      	ldrb	r3, [r0, r3]
 8001428:	4692      	mov	sl, r2
 800142a:	2b20      	cmp	r3, #32
 800142c:	d000      	beq.n	8001430 <HAL_I2C_Mem_Write+0x28>
 800142e:	e0a0      	b.n	8001572 <HAL_I2C_Mem_Write+0x16a>
 8001430:	2a00      	cmp	r2, #0
 8001432:	d100      	bne.n	8001436 <HAL_I2C_Mem_Write+0x2e>
 8001434:	e093      	b.n	800155e <HAL_I2C_Mem_Write+0x156>
 8001436:	465b      	mov	r3, fp
 8001438:	2b00      	cmp	r3, #0
 800143a:	d100      	bne.n	800143e <HAL_I2C_Mem_Write+0x36>
 800143c:	e08f      	b.n	800155e <HAL_I2C_Mem_Write+0x156>
 800143e:	2340      	movs	r3, #64	; 0x40
 8001440:	5cc2      	ldrb	r2, [r0, r3]
 8001442:	2a01      	cmp	r2, #1
 8001444:	d100      	bne.n	8001448 <HAL_I2C_Mem_Write+0x40>
 8001446:	e094      	b.n	8001572 <HAL_I2C_Mem_Write+0x16a>
 8001448:	2201      	movs	r2, #1
 800144a:	54c2      	strb	r2, [r0, r3]
 800144c:	f7ff fc54 	bl	8000cf8 <HAL_GetTick>
 8001450:	2580      	movs	r5, #128	; 0x80
 8001452:	0006      	movs	r6, r0
 8001454:	022d      	lsls	r5, r5, #8
 8001456:	e005      	b.n	8001464 <HAL_I2C_Mem_Write+0x5c>
 8001458:	f7ff fc4e 	bl	8000cf8 <HAL_GetTick>
 800145c:	1b80      	subs	r0, r0, r6
 800145e:	2819      	cmp	r0, #25
 8001460:	d900      	bls.n	8001464 <HAL_I2C_Mem_Write+0x5c>
 8001462:	e088      	b.n	8001576 <HAL_I2C_Mem_Write+0x16e>
 8001464:	6822      	ldr	r2, [r4, #0]
 8001466:	6993      	ldr	r3, [r2, #24]
 8001468:	0019      	movs	r1, r3
 800146a:	4029      	ands	r1, r5
 800146c:	422b      	tst	r3, r5
 800146e:	d1f3      	bne.n	8001458 <HAL_I2C_Mem_Write+0x50>
 8001470:	2341      	movs	r3, #65	; 0x41
 8001472:	2021      	movs	r0, #33	; 0x21
 8001474:	54e0      	strb	r0, [r4, r3]
 8001476:	3301      	adds	r3, #1
 8001478:	301f      	adds	r0, #31
 800147a:	54e0      	strb	r0, [r4, r3]
 800147c:	4653      	mov	r3, sl
 800147e:	6263      	str	r3, [r4, #36]	; 0x24
 8001480:	465b      	mov	r3, fp
 8001482:	6461      	str	r1, [r4, #68]	; 0x44
 8001484:	8563      	strh	r3, [r4, #42]	; 0x2a
 8001486:	464b      	mov	r3, r9
 8001488:	6850      	ldr	r0, [r2, #4]
 800148a:	6361      	str	r1, [r4, #52]	; 0x34
 800148c:	4972      	ldr	r1, [pc, #456]	; (8001658 <HAL_I2C_Mem_Write+0x250>)
 800148e:	b2db      	uxtb	r3, r3
 8001490:	4001      	ands	r1, r0
 8001492:	05bf      	lsls	r7, r7, #22
 8001494:	041b      	lsls	r3, r3, #16
 8001496:	430b      	orrs	r3, r1
 8001498:	0dbf      	lsrs	r7, r7, #22
 800149a:	4970      	ldr	r1, [pc, #448]	; (800165c <HAL_I2C_Mem_Write+0x254>)
 800149c:	433b      	orrs	r3, r7
 800149e:	430b      	orrs	r3, r1
 80014a0:	6053      	str	r3, [r2, #4]
 80014a2:	0020      	movs	r0, r4
 80014a4:	0032      	movs	r2, r6
 80014a6:	990c      	ldr	r1, [sp, #48]	; 0x30
 80014a8:	f7ff fd98 	bl	8000fdc <I2C_WaitOnTXISFlagUntilTimeout>
 80014ac:	2800      	cmp	r0, #0
 80014ae:	d000      	beq.n	80014b2 <HAL_I2C_Mem_Write+0xaa>
 80014b0:	e091      	b.n	80015d6 <HAL_I2C_Mem_Write+0x1ce>
 80014b2:	464b      	mov	r3, r9
 80014b4:	2b01      	cmp	r3, #1
 80014b6:	d000      	beq.n	80014ba <HAL_I2C_Mem_Write+0xb2>
 80014b8:	e081      	b.n	80015be <HAL_I2C_Mem_Write+0x1b6>
 80014ba:	4643      	mov	r3, r8
 80014bc:	2580      	movs	r5, #128	; 0x80
 80014be:	6821      	ldr	r1, [r4, #0]
 80014c0:	b2da      	uxtb	r2, r3
 80014c2:	628a      	str	r2, [r1, #40]	; 0x28
 80014c4:	9b0c      	ldr	r3, [sp, #48]	; 0x30
 80014c6:	3301      	adds	r3, #1
 80014c8:	d162      	bne.n	8001590 <HAL_I2C_Mem_Write+0x188>
 80014ca:	2280      	movs	r2, #128	; 0x80
 80014cc:	698b      	ldr	r3, [r1, #24]
 80014ce:	421a      	tst	r2, r3
 80014d0:	d0fc      	beq.n	80014cc <HAL_I2C_Mem_Write+0xc4>
 80014d2:	8d63      	ldrh	r3, [r4, #42]	; 0x2a
 80014d4:	2bff      	cmp	r3, #255	; 0xff
 80014d6:	d868      	bhi.n	80015aa <HAL_I2C_Mem_Write+0x1a2>
 80014d8:	8d63      	ldrh	r3, [r4, #42]	; 0x2a
 80014da:	4861      	ldr	r0, [pc, #388]	; (8001660 <HAL_I2C_Mem_Write+0x258>)
 80014dc:	684a      	ldr	r2, [r1, #4]
 80014de:	b29b      	uxth	r3, r3
 80014e0:	8523      	strh	r3, [r4, #40]	; 0x28
 80014e2:	4002      	ands	r2, r0
 80014e4:	b2db      	uxtb	r3, r3
 80014e6:	433a      	orrs	r2, r7
 80014e8:	041b      	lsls	r3, r3, #16
 80014ea:	4313      	orrs	r3, r2
 80014ec:	2280      	movs	r2, #128	; 0x80
 80014ee:	0492      	lsls	r2, r2, #18
 80014f0:	4313      	orrs	r3, r2
 80014f2:	604b      	str	r3, [r1, #4]
 80014f4:	4b5a      	ldr	r3, [pc, #360]	; (8001660 <HAL_I2C_Mem_Write+0x258>)
 80014f6:	2580      	movs	r5, #128	; 0x80
 80014f8:	4698      	mov	r8, r3
 80014fa:	e003      	b.n	8001504 <HAL_I2C_Mem_Write+0xfc>
 80014fc:	8d63      	ldrh	r3, [r4, #42]	; 0x2a
 80014fe:	2b00      	cmp	r3, #0
 8001500:	d100      	bne.n	8001504 <HAL_I2C_Mem_Write+0xfc>
 8001502:	e089      	b.n	8001618 <HAL_I2C_Mem_Write+0x210>
 8001504:	0032      	movs	r2, r6
 8001506:	0020      	movs	r0, r4
 8001508:	990c      	ldr	r1, [sp, #48]	; 0x30
 800150a:	f7ff fd67 	bl	8000fdc <I2C_WaitOnTXISFlagUntilTimeout>
 800150e:	2800      	cmp	r0, #0
 8001510:	d13c      	bne.n	800158c <HAL_I2C_Mem_Write+0x184>
 8001512:	6a63      	ldr	r3, [r4, #36]	; 0x24
 8001514:	6822      	ldr	r2, [r4, #0]
 8001516:	7819      	ldrb	r1, [r3, #0]
 8001518:	3301      	adds	r3, #1
 800151a:	6291      	str	r1, [r2, #40]	; 0x28
 800151c:	6263      	str	r3, [r4, #36]	; 0x24
 800151e:	8d63      	ldrh	r3, [r4, #42]	; 0x2a
 8001520:	3b01      	subs	r3, #1
 8001522:	b29b      	uxth	r3, r3
 8001524:	8563      	strh	r3, [r4, #42]	; 0x2a
 8001526:	8d23      	ldrh	r3, [r4, #40]	; 0x28
 8001528:	8d61      	ldrh	r1, [r4, #42]	; 0x2a
 800152a:	3b01      	subs	r3, #1
 800152c:	b29b      	uxth	r3, r3
 800152e:	8523      	strh	r3, [r4, #40]	; 0x28
 8001530:	2900      	cmp	r1, #0
 8001532:	d0e3      	beq.n	80014fc <HAL_I2C_Mem_Write+0xf4>
 8001534:	2b00      	cmp	r3, #0
 8001536:	d1e1      	bne.n	80014fc <HAL_I2C_Mem_Write+0xf4>
 8001538:	9b0c      	ldr	r3, [sp, #48]	; 0x30
 800153a:	3301      	adds	r3, #1
 800153c:	d150      	bne.n	80015e0 <HAL_I2C_Mem_Write+0x1d8>
 800153e:	6993      	ldr	r3, [r2, #24]
 8001540:	421d      	tst	r5, r3
 8001542:	d0fc      	beq.n	800153e <HAL_I2C_Mem_Write+0x136>
 8001544:	8d63      	ldrh	r3, [r4, #42]	; 0x2a
 8001546:	2bff      	cmp	r3, #255	; 0xff
 8001548:	d957      	bls.n	80015fa <HAL_I2C_Mem_Write+0x1f2>
 800154a:	23ff      	movs	r3, #255	; 0xff
 800154c:	4641      	mov	r1, r8
 800154e:	8523      	strh	r3, [r4, #40]	; 0x28
 8001550:	6853      	ldr	r3, [r2, #4]
 8001552:	400b      	ands	r3, r1
 8001554:	4943      	ldr	r1, [pc, #268]	; (8001664 <HAL_I2C_Mem_Write+0x25c>)
 8001556:	433b      	orrs	r3, r7
 8001558:	430b      	orrs	r3, r1
 800155a:	6053      	str	r3, [r2, #4]
 800155c:	e7ce      	b.n	80014fc <HAL_I2C_Mem_Write+0xf4>
 800155e:	2380      	movs	r3, #128	; 0x80
 8001560:	2001      	movs	r0, #1
 8001562:	009b      	lsls	r3, r3, #2
 8001564:	6463      	str	r3, [r4, #68]	; 0x44
 8001566:	bcf0      	pop	{r4, r5, r6, r7}
 8001568:	46bb      	mov	fp, r7
 800156a:	46b2      	mov	sl, r6
 800156c:	46a9      	mov	r9, r5
 800156e:	46a0      	mov	r8, r4
 8001570:	bdf8      	pop	{r3, r4, r5, r6, r7, pc}
 8001572:	2002      	movs	r0, #2
 8001574:	e7f7      	b.n	8001566 <HAL_I2C_Mem_Write+0x15e>
 8001576:	2220      	movs	r2, #32
 8001578:	6c63      	ldr	r3, [r4, #68]	; 0x44
 800157a:	4313      	orrs	r3, r2
 800157c:	6463      	str	r3, [r4, #68]	; 0x44
 800157e:	2341      	movs	r3, #65	; 0x41
 8001580:	54e2      	strb	r2, [r4, r3]
 8001582:	2300      	movs	r3, #0
 8001584:	3222      	adds	r2, #34	; 0x22
 8001586:	54a3      	strb	r3, [r4, r2]
 8001588:	3a02      	subs	r2, #2
 800158a:	54a3      	strb	r3, [r4, r2]
 800158c:	2001      	movs	r0, #1
 800158e:	e7ea      	b.n	8001566 <HAL_I2C_Mem_Write+0x15e>
 8001590:	698b      	ldr	r3, [r1, #24]
 8001592:	421d      	tst	r5, r3
 8001594:	d19d      	bne.n	80014d2 <HAL_I2C_Mem_Write+0xca>
 8001596:	f7ff fbaf 	bl	8000cf8 <HAL_GetTick>
 800159a:	9b0c      	ldr	r3, [sp, #48]	; 0x30
 800159c:	1b80      	subs	r0, r0, r6
 800159e:	4283      	cmp	r3, r0
 80015a0:	d34f      	bcc.n	8001642 <HAL_I2C_Mem_Write+0x23a>
 80015a2:	2b00      	cmp	r3, #0
 80015a4:	d04d      	beq.n	8001642 <HAL_I2C_Mem_Write+0x23a>
 80015a6:	6821      	ldr	r1, [r4, #0]
 80015a8:	e78c      	b.n	80014c4 <HAL_I2C_Mem_Write+0xbc>
 80015aa:	23ff      	movs	r3, #255	; 0xff
 80015ac:	4a2c      	ldr	r2, [pc, #176]	; (8001660 <HAL_I2C_Mem_Write+0x258>)
 80015ae:	8523      	strh	r3, [r4, #40]	; 0x28
 80015b0:	684b      	ldr	r3, [r1, #4]
 80015b2:	4013      	ands	r3, r2
 80015b4:	4a2b      	ldr	r2, [pc, #172]	; (8001664 <HAL_I2C_Mem_Write+0x25c>)
 80015b6:	433b      	orrs	r3, r7
 80015b8:	4313      	orrs	r3, r2
 80015ba:	604b      	str	r3, [r1, #4]
 80015bc:	e79a      	b.n	80014f4 <HAL_I2C_Mem_Write+0xec>
 80015be:	4642      	mov	r2, r8
 80015c0:	6823      	ldr	r3, [r4, #0]
 80015c2:	0a12      	lsrs	r2, r2, #8
 80015c4:	629a      	str	r2, [r3, #40]	; 0x28
 80015c6:	0020      	movs	r0, r4
 80015c8:	0032      	movs	r2, r6
 80015ca:	990c      	ldr	r1, [sp, #48]	; 0x30
 80015cc:	f7ff fd06 	bl	8000fdc <I2C_WaitOnTXISFlagUntilTimeout>
 80015d0:	2800      	cmp	r0, #0
 80015d2:	d100      	bne.n	80015d6 <HAL_I2C_Mem_Write+0x1ce>
 80015d4:	e771      	b.n	80014ba <HAL_I2C_Mem_Write+0xb2>
 80015d6:	2340      	movs	r3, #64	; 0x40
 80015d8:	2200      	movs	r2, #0
 80015da:	2001      	movs	r0, #1
 80015dc:	54e2      	strb	r2, [r4, r3]
 80015de:	e7c2      	b.n	8001566 <HAL_I2C_Mem_Write+0x15e>
 80015e0:	6993      	ldr	r3, [r2, #24]
 80015e2:	421d      	tst	r5, r3
 80015e4:	d1ae      	bne.n	8001544 <HAL_I2C_Mem_Write+0x13c>
 80015e6:	f7ff fb87 	bl	8000cf8 <HAL_GetTick>
 80015ea:	9b0c      	ldr	r3, [sp, #48]	; 0x30
 80015ec:	1b80      	subs	r0, r0, r6
 80015ee:	4283      	cmp	r3, r0
 80015f0:	d3c1      	bcc.n	8001576 <HAL_I2C_Mem_Write+0x16e>
 80015f2:	2b00      	cmp	r3, #0
 80015f4:	d0bf      	beq.n	8001576 <HAL_I2C_Mem_Write+0x16e>
 80015f6:	6822      	ldr	r2, [r4, #0]
 80015f8:	e79e      	b.n	8001538 <HAL_I2C_Mem_Write+0x130>
 80015fa:	4640      	mov	r0, r8
 80015fc:	8d63      	ldrh	r3, [r4, #42]	; 0x2a
 80015fe:	6851      	ldr	r1, [r2, #4]
 8001600:	b29b      	uxth	r3, r3
 8001602:	8523      	strh	r3, [r4, #40]	; 0x28
 8001604:	4001      	ands	r1, r0
 8001606:	b2db      	uxtb	r3, r3
 8001608:	4339      	orrs	r1, r7
 800160a:	041b      	lsls	r3, r3, #16
 800160c:	430b      	orrs	r3, r1
 800160e:	2180      	movs	r1, #128	; 0x80
 8001610:	0489      	lsls	r1, r1, #18
 8001612:	430b      	orrs	r3, r1
 8001614:	6053      	str	r3, [r2, #4]
 8001616:	e771      	b.n	80014fc <HAL_I2C_Mem_Write+0xf4>
 8001618:	0032      	movs	r2, r6
 800161a:	0020      	movs	r0, r4
 800161c:	990c      	ldr	r1, [sp, #48]	; 0x30
 800161e:	f7ff fdbd 	bl	800119c <I2C_WaitOnSTOPFlagUntilTimeout>
 8001622:	2800      	cmp	r0, #0
 8001624:	d1b2      	bne.n	800158c <HAL_I2C_Mem_Write+0x184>
 8001626:	2120      	movs	r1, #32
 8001628:	6823      	ldr	r3, [r4, #0]
 800162a:	4d0f      	ldr	r5, [pc, #60]	; (8001668 <HAL_I2C_Mem_Write+0x260>)
 800162c:	61d9      	str	r1, [r3, #28]
 800162e:	685a      	ldr	r2, [r3, #4]
 8001630:	402a      	ands	r2, r5
 8001632:	605a      	str	r2, [r3, #4]
 8001634:	2341      	movs	r3, #65	; 0x41
 8001636:	54e1      	strb	r1, [r4, r3]
 8001638:	3301      	adds	r3, #1
 800163a:	54e0      	strb	r0, [r4, r3]
 800163c:	3b02      	subs	r3, #2
 800163e:	54e0      	strb	r0, [r4, r3]
 8001640:	e791      	b.n	8001566 <HAL_I2C_Mem_Write+0x15e>
 8001642:	2220      	movs	r2, #32
 8001644:	6c63      	ldr	r3, [r4, #68]	; 0x44
 8001646:	4313      	orrs	r3, r2
 8001648:	6463      	str	r3, [r4, #68]	; 0x44
 800164a:	2341      	movs	r3, #65	; 0x41
 800164c:	54e2      	strb	r2, [r4, r3]
 800164e:	2200      	movs	r2, #0
 8001650:	3301      	adds	r3, #1
 8001652:	54e2      	strb	r2, [r4, r3]
 8001654:	e7bf      	b.n	80015d6 <HAL_I2C_Mem_Write+0x1ce>
 8001656:	46c0      	nop			; (mov r8, r8)
 8001658:	fc009800 	.word	0xfc009800
 800165c:	01002000 	.word	0x01002000
 8001660:	fc009c00 	.word	0xfc009c00
 8001664:	01ff0000 	.word	0x01ff0000
 8001668:	fe00e800 	.word	0xfe00e800

0800166c <HAL_I2C_Mem_Read>:
 800166c:	b5f0      	push	{r4, r5, r6, r7, lr}
 800166e:	464e      	mov	r6, r9
 8001670:	46de      	mov	lr, fp
 8001672:	4657      	mov	r7, sl
 8001674:	4645      	mov	r5, r8
 8001676:	b5e0      	push	{r5, r6, r7, lr}
 8001678:	b083      	sub	sp, #12
 800167a:	4699      	mov	r9, r3
 800167c:	ab0c      	add	r3, sp, #48	; 0x30
 800167e:	9201      	str	r2, [sp, #4]
 8001680:	cb04      	ldmia	r3!, {r2}
 8001682:	0004      	movs	r4, r0
 8001684:	881b      	ldrh	r3, [r3, #0]
 8001686:	4688      	mov	r8, r1
 8001688:	469b      	mov	fp, r3
 800168a:	2341      	movs	r3, #65	; 0x41
 800168c:	5cc3      	ldrb	r3, [r0, r3]
 800168e:	4692      	mov	sl, r2
 8001690:	9e0e      	ldr	r6, [sp, #56]	; 0x38
 8001692:	2b20      	cmp	r3, #32
 8001694:	d000      	beq.n	8001698 <HAL_I2C_Mem_Read+0x2c>
 8001696:	e0a4      	b.n	80017e2 <HAL_I2C_Mem_Read+0x176>
 8001698:	2a00      	cmp	r2, #0
 800169a:	d100      	bne.n	800169e <HAL_I2C_Mem_Read+0x32>
 800169c:	e096      	b.n	80017cc <HAL_I2C_Mem_Read+0x160>
 800169e:	465b      	mov	r3, fp
 80016a0:	2b00      	cmp	r3, #0
 80016a2:	d100      	bne.n	80016a6 <HAL_I2C_Mem_Read+0x3a>
 80016a4:	e092      	b.n	80017cc <HAL_I2C_Mem_Read+0x160>
 80016a6:	2340      	movs	r3, #64	; 0x40
 80016a8:	5cc2      	ldrb	r2, [r0, r3]
 80016aa:	2a01      	cmp	r2, #1
 80016ac:	d100      	bne.n	80016b0 <HAL_I2C_Mem_Read+0x44>
 80016ae:	e098      	b.n	80017e2 <HAL_I2C_Mem_Read+0x176>
 80016b0:	2201      	movs	r2, #1
 80016b2:	54c2      	strb	r2, [r0, r3]
 80016b4:	f7ff fb20 	bl	8000cf8 <HAL_GetTick>
 80016b8:	2580      	movs	r5, #128	; 0x80
 80016ba:	0007      	movs	r7, r0
 80016bc:	022d      	lsls	r5, r5, #8
 80016be:	e004      	b.n	80016ca <HAL_I2C_Mem_Read+0x5e>
 80016c0:	f7ff fb1a 	bl	8000cf8 <HAL_GetTick>
 80016c4:	1bc0      	subs	r0, r0, r7
 80016c6:	2819      	cmp	r0, #25
 80016c8:	d873      	bhi.n	80017b2 <HAL_I2C_Mem_Read+0x146>
 80016ca:	6822      	ldr	r2, [r4, #0]
 80016cc:	6993      	ldr	r3, [r2, #24]
 80016ce:	0019      	movs	r1, r3
 80016d0:	4029      	ands	r1, r5
 80016d2:	422b      	tst	r3, r5
 80016d4:	d1f4      	bne.n	80016c0 <HAL_I2C_Mem_Read+0x54>
 80016d6:	2341      	movs	r3, #65	; 0x41
 80016d8:	2022      	movs	r0, #34	; 0x22
 80016da:	54e0      	strb	r0, [r4, r3]
 80016dc:	3301      	adds	r3, #1
 80016de:	301e      	adds	r0, #30
 80016e0:	54e0      	strb	r0, [r4, r3]
 80016e2:	4653      	mov	r3, sl
 80016e4:	6263      	str	r3, [r4, #36]	; 0x24
 80016e6:	465b      	mov	r3, fp
 80016e8:	6461      	str	r1, [r4, #68]	; 0x44
 80016ea:	8563      	strh	r3, [r4, #42]	; 0x2a
 80016ec:	4643      	mov	r3, r8
 80016ee:	059d      	lsls	r5, r3, #22
 80016f0:	0dab      	lsrs	r3, r5, #22
 80016f2:	4698      	mov	r8, r3
 80016f4:	464b      	mov	r3, r9
 80016f6:	6850      	ldr	r0, [r2, #4]
 80016f8:	6361      	str	r1, [r4, #52]	; 0x34
 80016fa:	497b      	ldr	r1, [pc, #492]	; (80018e8 <HAL_I2C_Mem_Read+0x27c>)
 80016fc:	b2db      	uxtb	r3, r3
 80016fe:	4001      	ands	r1, r0
 8001700:	041b      	lsls	r3, r3, #16
 8001702:	430b      	orrs	r3, r1
 8001704:	4641      	mov	r1, r8
 8001706:	430b      	orrs	r3, r1
 8001708:	2180      	movs	r1, #128	; 0x80
 800170a:	0189      	lsls	r1, r1, #6
 800170c:	430b      	orrs	r3, r1
 800170e:	6053      	str	r3, [r2, #4]
 8001710:	0031      	movs	r1, r6
 8001712:	003a      	movs	r2, r7
 8001714:	0020      	movs	r0, r4
 8001716:	f7ff fc61 	bl	8000fdc <I2C_WaitOnTXISFlagUntilTimeout>
 800171a:	2800      	cmp	r0, #0
 800171c:	d000      	beq.n	8001720 <HAL_I2C_Mem_Read+0xb4>
 800171e:	e0db      	b.n	80018d8 <HAL_I2C_Mem_Read+0x26c>
 8001720:	464b      	mov	r3, r9
 8001722:	2b01      	cmp	r3, #1
 8001724:	d000      	beq.n	8001728 <HAL_I2C_Mem_Read+0xbc>
 8001726:	e07e      	b.n	8001826 <HAL_I2C_Mem_Read+0x1ba>
 8001728:	466b      	mov	r3, sp
 800172a:	6821      	ldr	r1, [r4, #0]
 800172c:	791a      	ldrb	r2, [r3, #4]
 800172e:	628a      	str	r2, [r1, #40]	; 0x28
 8001730:	2540      	movs	r5, #64	; 0x40
 8001732:	1c73      	adds	r3, r6, #1
 8001734:	d000      	beq.n	8001738 <HAL_I2C_Mem_Read+0xcc>
 8001736:	e0aa      	b.n	800188e <HAL_I2C_Mem_Read+0x222>
 8001738:	2240      	movs	r2, #64	; 0x40
 800173a:	698b      	ldr	r3, [r1, #24]
 800173c:	421a      	tst	r2, r3
 800173e:	d0fc      	beq.n	800173a <HAL_I2C_Mem_Read+0xce>
 8001740:	8d63      	ldrh	r3, [r4, #42]	; 0x2a
 8001742:	2bff      	cmp	r3, #255	; 0xff
 8001744:	d800      	bhi.n	8001748 <HAL_I2C_Mem_Read+0xdc>
 8001746:	e0af      	b.n	80018a8 <HAL_I2C_Mem_Read+0x23c>
 8001748:	23ff      	movs	r3, #255	; 0xff
 800174a:	4a67      	ldr	r2, [pc, #412]	; (80018e8 <HAL_I2C_Mem_Read+0x27c>)
 800174c:	8523      	strh	r3, [r4, #40]	; 0x28
 800174e:	684b      	ldr	r3, [r1, #4]
 8001750:	4013      	ands	r3, r2
 8001752:	4642      	mov	r2, r8
 8001754:	4313      	orrs	r3, r2
 8001756:	4a65      	ldr	r2, [pc, #404]	; (80018ec <HAL_I2C_Mem_Read+0x280>)
 8001758:	4313      	orrs	r3, r2
 800175a:	604b      	str	r3, [r1, #4]
 800175c:	2380      	movs	r3, #128	; 0x80
 800175e:	2504      	movs	r5, #4
 8001760:	4699      	mov	r9, r3
 8001762:	1c73      	adds	r3, r6, #1
 8001764:	d11b      	bne.n	800179e <HAL_I2C_Mem_Read+0x132>
 8001766:	698b      	ldr	r3, [r1, #24]
 8001768:	421d      	tst	r5, r3
 800176a:	d0fc      	beq.n	8001766 <HAL_I2C_Mem_Read+0xfa>
 800176c:	6a4b      	ldr	r3, [r1, #36]	; 0x24
 800176e:	6a62      	ldr	r2, [r4, #36]	; 0x24
 8001770:	7013      	strb	r3, [r2, #0]
 8001772:	8d62      	ldrh	r2, [r4, #42]	; 0x2a
 8001774:	6a63      	ldr	r3, [r4, #36]	; 0x24
 8001776:	3a01      	subs	r2, #1
 8001778:	3301      	adds	r3, #1
 800177a:	b292      	uxth	r2, r2
 800177c:	6263      	str	r3, [r4, #36]	; 0x24
 800177e:	8d23      	ldrh	r3, [r4, #40]	; 0x28
 8001780:	8562      	strh	r2, [r4, #42]	; 0x2a
 8001782:	3b01      	subs	r3, #1
 8001784:	8d62      	ldrh	r2, [r4, #42]	; 0x2a
 8001786:	b29b      	uxth	r3, r3
 8001788:	8523      	strh	r3, [r4, #40]	; 0x28
 800178a:	2a00      	cmp	r2, #0
 800178c:	d001      	beq.n	8001792 <HAL_I2C_Mem_Read+0x126>
 800178e:	2b00      	cmp	r3, #0
 8001790:	d034      	beq.n	80017fc <HAL_I2C_Mem_Read+0x190>
 8001792:	8d63      	ldrh	r3, [r4, #42]	; 0x2a
 8001794:	2b00      	cmp	r3, #0
 8001796:	d055      	beq.n	8001844 <HAL_I2C_Mem_Read+0x1d8>
 8001798:	6821      	ldr	r1, [r4, #0]
 800179a:	1c73      	adds	r3, r6, #1
 800179c:	d0e3      	beq.n	8001766 <HAL_I2C_Mem_Read+0xfa>
 800179e:	698b      	ldr	r3, [r1, #24]
 80017a0:	421d      	tst	r5, r3
 80017a2:	d1e3      	bne.n	800176c <HAL_I2C_Mem_Read+0x100>
 80017a4:	f7ff faa8 	bl	8000cf8 <HAL_GetTick>
 80017a8:	1bc0      	subs	r0, r0, r7
 80017aa:	4286      	cmp	r6, r0
 80017ac:	d301      	bcc.n	80017b2 <HAL_I2C_Mem_Read+0x146>
 80017ae:	2e00      	cmp	r6, #0
 80017b0:	d1f2      	bne.n	8001798 <HAL_I2C_Mem_Read+0x12c>
 80017b2:	2220      	movs	r2, #32
 80017b4:	6c63      	ldr	r3, [r4, #68]	; 0x44
 80017b6:	2001      	movs	r0, #1
 80017b8:	4313      	orrs	r3, r2
 80017ba:	6463      	str	r3, [r4, #68]	; 0x44
 80017bc:	2341      	movs	r3, #65	; 0x41
 80017be:	54e2      	strb	r2, [r4, r3]
 80017c0:	2300      	movs	r3, #0
 80017c2:	3222      	adds	r2, #34	; 0x22
 80017c4:	54a3      	strb	r3, [r4, r2]
 80017c6:	3a02      	subs	r2, #2
 80017c8:	54a3      	strb	r3, [r4, r2]
 80017ca:	e003      	b.n	80017d4 <HAL_I2C_Mem_Read+0x168>
 80017cc:	2380      	movs	r3, #128	; 0x80
 80017ce:	2001      	movs	r0, #1
 80017d0:	009b      	lsls	r3, r3, #2
 80017d2:	6463      	str	r3, [r4, #68]	; 0x44
 80017d4:	b003      	add	sp, #12
 80017d6:	bcf0      	pop	{r4, r5, r6, r7}
 80017d8:	46bb      	mov	fp, r7
 80017da:	46b2      	mov	sl, r6
 80017dc:	46a9      	mov	r9, r5
 80017de:	46a0      	mov	r8, r4
 80017e0:	bdf0      	pop	{r4, r5, r6, r7, pc}
 80017e2:	2002      	movs	r0, #2
 80017e4:	e7f6      	b.n	80017d4 <HAL_I2C_Mem_Read+0x168>
 80017e6:	4649      	mov	r1, r9
 80017e8:	6993      	ldr	r3, [r2, #24]
 80017ea:	4219      	tst	r1, r3
 80017ec:	d10d      	bne.n	800180a <HAL_I2C_Mem_Read+0x19e>
 80017ee:	f7ff fa83 	bl	8000cf8 <HAL_GetTick>
 80017f2:	1bc0      	subs	r0, r0, r7
 80017f4:	4286      	cmp	r6, r0
 80017f6:	d3dc      	bcc.n	80017b2 <HAL_I2C_Mem_Read+0x146>
 80017f8:	2e00      	cmp	r6, #0
 80017fa:	d0da      	beq.n	80017b2 <HAL_I2C_Mem_Read+0x146>
 80017fc:	6822      	ldr	r2, [r4, #0]
 80017fe:	1c73      	adds	r3, r6, #1
 8001800:	d1f1      	bne.n	80017e6 <HAL_I2C_Mem_Read+0x17a>
 8001802:	4649      	mov	r1, r9
 8001804:	6993      	ldr	r3, [r2, #24]
 8001806:	4219      	tst	r1, r3
 8001808:	d0fb      	beq.n	8001802 <HAL_I2C_Mem_Read+0x196>
 800180a:	8d63      	ldrh	r3, [r4, #42]	; 0x2a
 800180c:	2bff      	cmp	r3, #255	; 0xff
 800180e:	d92e      	bls.n	800186e <HAL_I2C_Mem_Read+0x202>
 8001810:	23ff      	movs	r3, #255	; 0xff
 8001812:	4937      	ldr	r1, [pc, #220]	; (80018f0 <HAL_I2C_Mem_Read+0x284>)
 8001814:	8523      	strh	r3, [r4, #40]	; 0x28
 8001816:	6853      	ldr	r3, [r2, #4]
 8001818:	400b      	ands	r3, r1
 800181a:	4641      	mov	r1, r8
 800181c:	430b      	orrs	r3, r1
 800181e:	4935      	ldr	r1, [pc, #212]	; (80018f4 <HAL_I2C_Mem_Read+0x288>)
 8001820:	430b      	orrs	r3, r1
 8001822:	6053      	str	r3, [r2, #4]
 8001824:	e7b5      	b.n	8001792 <HAL_I2C_Mem_Read+0x126>
 8001826:	9d01      	ldr	r5, [sp, #4]
 8001828:	6823      	ldr	r3, [r4, #0]
 800182a:	0a2a      	lsrs	r2, r5, #8
 800182c:	629a      	str	r2, [r3, #40]	; 0x28
 800182e:	0031      	movs	r1, r6
 8001830:	003a      	movs	r2, r7
 8001832:	0020      	movs	r0, r4
 8001834:	f7ff fbd2 	bl	8000fdc <I2C_WaitOnTXISFlagUntilTimeout>
 8001838:	2800      	cmp	r0, #0
 800183a:	d14d      	bne.n	80018d8 <HAL_I2C_Mem_Read+0x26c>
 800183c:	6821      	ldr	r1, [r4, #0]
 800183e:	b2ea      	uxtb	r2, r5
 8001840:	628a      	str	r2, [r1, #40]	; 0x28
 8001842:	e775      	b.n	8001730 <HAL_I2C_Mem_Read+0xc4>
 8001844:	003a      	movs	r2, r7
 8001846:	0031      	movs	r1, r6
 8001848:	0020      	movs	r0, r4
 800184a:	f7ff fca7 	bl	800119c <I2C_WaitOnSTOPFlagUntilTimeout>
 800184e:	2800      	cmp	r0, #0
 8001850:	d147      	bne.n	80018e2 <HAL_I2C_Mem_Read+0x276>
 8001852:	2120      	movs	r1, #32
 8001854:	6823      	ldr	r3, [r4, #0]
 8001856:	4d28      	ldr	r5, [pc, #160]	; (80018f8 <HAL_I2C_Mem_Read+0x28c>)
 8001858:	61d9      	str	r1, [r3, #28]
 800185a:	685a      	ldr	r2, [r3, #4]
 800185c:	402a      	ands	r2, r5
 800185e:	605a      	str	r2, [r3, #4]
 8001860:	2341      	movs	r3, #65	; 0x41
 8001862:	54e1      	strb	r1, [r4, r3]
 8001864:	3301      	adds	r3, #1
 8001866:	54e0      	strb	r0, [r4, r3]
 8001868:	3b02      	subs	r3, #2
 800186a:	54e0      	strb	r0, [r4, r3]
 800186c:	e7b2      	b.n	80017d4 <HAL_I2C_Mem_Read+0x168>
 800186e:	8d63      	ldrh	r3, [r4, #42]	; 0x2a
 8001870:	481f      	ldr	r0, [pc, #124]	; (80018f0 <HAL_I2C_Mem_Read+0x284>)
 8001872:	6851      	ldr	r1, [r2, #4]
 8001874:	b29b      	uxth	r3, r3
 8001876:	4001      	ands	r1, r0
 8001878:	4640      	mov	r0, r8
 800187a:	8523      	strh	r3, [r4, #40]	; 0x28
 800187c:	b2db      	uxtb	r3, r3
 800187e:	4301      	orrs	r1, r0
 8001880:	041b      	lsls	r3, r3, #16
 8001882:	430b      	orrs	r3, r1
 8001884:	2180      	movs	r1, #128	; 0x80
 8001886:	0489      	lsls	r1, r1, #18
 8001888:	430b      	orrs	r3, r1
 800188a:	6053      	str	r3, [r2, #4]
 800188c:	e781      	b.n	8001792 <HAL_I2C_Mem_Read+0x126>
 800188e:	698b      	ldr	r3, [r1, #24]
 8001890:	421d      	tst	r5, r3
 8001892:	d000      	beq.n	8001896 <HAL_I2C_Mem_Read+0x22a>
 8001894:	e754      	b.n	8001740 <HAL_I2C_Mem_Read+0xd4>
 8001896:	f7ff fa2f 	bl	8000cf8 <HAL_GetTick>
 800189a:	1bc0      	subs	r0, r0, r7
 800189c:	4286      	cmp	r6, r0
 800189e:	d312      	bcc.n	80018c6 <HAL_I2C_Mem_Read+0x25a>
 80018a0:	2e00      	cmp	r6, #0
 80018a2:	d010      	beq.n	80018c6 <HAL_I2C_Mem_Read+0x25a>
 80018a4:	6821      	ldr	r1, [r4, #0]
 80018a6:	e744      	b.n	8001732 <HAL_I2C_Mem_Read+0xc6>
 80018a8:	8d63      	ldrh	r3, [r4, #42]	; 0x2a
 80018aa:	480f      	ldr	r0, [pc, #60]	; (80018e8 <HAL_I2C_Mem_Read+0x27c>)
 80018ac:	684a      	ldr	r2, [r1, #4]
 80018ae:	b29b      	uxth	r3, r3
 80018b0:	4002      	ands	r2, r0
 80018b2:	4640      	mov	r0, r8
 80018b4:	8523      	strh	r3, [r4, #40]	; 0x28
 80018b6:	b2db      	uxtb	r3, r3
 80018b8:	4302      	orrs	r2, r0
 80018ba:	041b      	lsls	r3, r3, #16
 80018bc:	4313      	orrs	r3, r2
 80018be:	4a0f      	ldr	r2, [pc, #60]	; (80018fc <HAL_I2C_Mem_Read+0x290>)
 80018c0:	4313      	orrs	r3, r2
 80018c2:	604b      	str	r3, [r1, #4]
 80018c4:	e74a      	b.n	800175c <HAL_I2C_Mem_Read+0xf0>
 80018c6:	2220      	movs	r2, #32
 80018c8:	6c63      	ldr	r3, [r4, #68]	; 0x44
 80018ca:	4313      	orrs	r3, r2
 80018cc:	6463      	str	r3, [r4, #68]	; 0x44
 80018ce:	2341      	movs	r3, #65	; 0x41
 80018d0:	54e2      	strb	r2, [r4, r3]
 80018d2:	2200      	movs	r2, #0
 80018d4:	3301      	adds	r3, #1
 80018d6:	54e2      	strb	r2, [r4, r3]
 80018d8:	2340      	movs	r3, #64	; 0x40
 80018da:	2200      	movs	r2, #0
 80018dc:	2001      	movs	r0, #1
 80018de:	54e2      	strb	r2, [r4, r3]
 80018e0:	e778      	b.n	80017d4 <HAL_I2C_Mem_Read+0x168>
 80018e2:	2001      	movs	r0, #1
 80018e4:	e776      	b.n	80017d4 <HAL_I2C_Mem_Read+0x168>
 80018e6:	46c0      	nop			; (mov r8, r8)
 80018e8:	fc009800 	.word	0xfc009800
 80018ec:	01ff2400 	.word	0x01ff2400
 80018f0:	fc009c00 	.word	0xfc009c00
 80018f4:	01ff0000 	.word	0x01ff0000
 80018f8:	fe00e800 	.word	0xfe00e800
 80018fc:	02002400 	.word	0x02002400

08001900 <HAL_I2CEx_ConfigAnalogFilter>:
 8001900:	b5f0      	push	{r4, r5, r6, r7, lr}
 8001902:	2541      	movs	r5, #65	; 0x41
 8001904:	5d43      	ldrb	r3, [r0, r5]
 8001906:	000a      	movs	r2, r1
 8001908:	b2de      	uxtb	r6, r3
 800190a:	2b20      	cmp	r3, #32
 800190c:	d11b      	bne.n	8001946 <HAL_I2CEx_ConfigAnalogFilter+0x46>
 800190e:	2740      	movs	r7, #64	; 0x40
 8001910:	5dc3      	ldrb	r3, [r0, r7]
 8001912:	2b01      	cmp	r3, #1
 8001914:	d017      	beq.n	8001946 <HAL_I2CEx_ConfigAnalogFilter+0x46>
 8001916:	2101      	movs	r1, #1
 8001918:	2324      	movs	r3, #36	; 0x24
 800191a:	468c      	mov	ip, r1
 800191c:	5543      	strb	r3, [r0, r5]
 800191e:	6803      	ldr	r3, [r0, #0]
 8001920:	681c      	ldr	r4, [r3, #0]
 8001922:	438c      	bics	r4, r1
 8001924:	601c      	str	r4, [r3, #0]
 8001926:	681c      	ldr	r4, [r3, #0]
 8001928:	4908      	ldr	r1, [pc, #32]	; (800194c <HAL_I2CEx_ConfigAnalogFilter+0x4c>)
 800192a:	400c      	ands	r4, r1
 800192c:	601c      	str	r4, [r3, #0]
 800192e:	6819      	ldr	r1, [r3, #0]
 8001930:	4311      	orrs	r1, r2
 8001932:	6019      	str	r1, [r3, #0]
 8001934:	4661      	mov	r1, ip
 8001936:	681a      	ldr	r2, [r3, #0]
 8001938:	430a      	orrs	r2, r1
 800193a:	601a      	str	r2, [r3, #0]
 800193c:	2300      	movs	r3, #0
 800193e:	5546      	strb	r6, [r0, r5]
 8001940:	55c3      	strb	r3, [r0, r7]
 8001942:	2000      	movs	r0, #0
 8001944:	bdf0      	pop	{r4, r5, r6, r7, pc}
 8001946:	2002      	movs	r0, #2
 8001948:	e7fc      	b.n	8001944 <HAL_I2CEx_ConfigAnalogFilter+0x44>
 800194a:	46c0      	nop			; (mov r8, r8)
 800194c:	ffffefff 	.word	0xffffefff

08001950 <HAL_I2CEx_ConfigDigitalFilter>:
 8001950:	b5f0      	push	{r4, r5, r6, r7, lr}
 8001952:	2541      	movs	r5, #65	; 0x41
 8001954:	5d43      	ldrb	r3, [r0, r5]
 8001956:	b2de      	uxtb	r6, r3
 8001958:	2b20      	cmp	r3, #32
 800195a:	d11a      	bne.n	8001992 <HAL_I2CEx_ConfigDigitalFilter+0x42>
 800195c:	2740      	movs	r7, #64	; 0x40
 800195e:	5dc3      	ldrb	r3, [r0, r7]
 8001960:	2b01      	cmp	r3, #1
 8001962:	d016      	beq.n	8001992 <HAL_I2CEx_ConfigDigitalFilter+0x42>
 8001964:	2324      	movs	r3, #36	; 0x24
 8001966:	5543      	strb	r3, [r0, r5]
 8001968:	3b23      	subs	r3, #35	; 0x23
 800196a:	469c      	mov	ip, r3
 800196c:	6804      	ldr	r4, [r0, #0]
 800196e:	0209      	lsls	r1, r1, #8
 8001970:	6822      	ldr	r2, [r4, #0]
 8001972:	439a      	bics	r2, r3
 8001974:	6022      	str	r2, [r4, #0]
 8001976:	6822      	ldr	r2, [r4, #0]
 8001978:	4b07      	ldr	r3, [pc, #28]	; (8001998 <HAL_I2CEx_ConfigDigitalFilter+0x48>)
 800197a:	401a      	ands	r2, r3
 800197c:	4311      	orrs	r1, r2
 800197e:	4662      	mov	r2, ip
 8001980:	6021      	str	r1, [r4, #0]
 8001982:	6823      	ldr	r3, [r4, #0]
 8001984:	4313      	orrs	r3, r2
 8001986:	6023      	str	r3, [r4, #0]
 8001988:	2300      	movs	r3, #0
 800198a:	5546      	strb	r6, [r0, r5]
 800198c:	55c3      	strb	r3, [r0, r7]
 800198e:	2000      	movs	r0, #0
 8001990:	bdf0      	pop	{r4, r5, r6, r7, pc}
 8001992:	2002      	movs	r0, #2
 8001994:	e7fc      	b.n	8001990 <HAL_I2CEx_ConfigDigitalFilter+0x40>
 8001996:	46c0      	nop			; (mov r8, r8)
 8001998:	fffff0ff 	.word	0xfffff0ff

0800199c <HAL_PWREx_ControlVoltageScaling>:
 800199c:	b570      	push	{r4, r5, r6, lr}
 800199e:	4c13      	ldr	r4, [pc, #76]	; (80019ec <HAL_PWREx_ControlVoltageScaling+0x50>)
 80019a0:	4a13      	ldr	r2, [pc, #76]	; (80019f0 <HAL_PWREx_ControlVoltageScaling+0x54>)
 80019a2:	6823      	ldr	r3, [r4, #0]
 80019a4:	2500      	movs	r5, #0
 80019a6:	4013      	ands	r3, r2
 80019a8:	4303      	orrs	r3, r0
 80019aa:	6023      	str	r3, [r4, #0]
 80019ac:	2380      	movs	r3, #128	; 0x80
 80019ae:	009b      	lsls	r3, r3, #2
 80019b0:	4298      	cmp	r0, r3
 80019b2:	d001      	beq.n	80019b8 <HAL_PWREx_ControlVoltageScaling+0x1c>
 80019b4:	0028      	movs	r0, r5
 80019b6:	bd70      	pop	{r4, r5, r6, pc}
 80019b8:	4b0e      	ldr	r3, [pc, #56]	; (80019f4 <HAL_PWREx_ControlVoltageScaling+0x58>)
 80019ba:	490f      	ldr	r1, [pc, #60]	; (80019f8 <HAL_PWREx_ControlVoltageScaling+0x5c>)
 80019bc:	681b      	ldr	r3, [r3, #0]
 80019be:	0058      	lsls	r0, r3, #1
 80019c0:	18c0      	adds	r0, r0, r3
 80019c2:	0040      	lsls	r0, r0, #1
 80019c4:	f7fe fb9e 	bl	8000104 <__udivsi3>
 80019c8:	2280      	movs	r2, #128	; 0x80
 80019ca:	6963      	ldr	r3, [r4, #20]
 80019cc:	00d2      	lsls	r2, r2, #3
 80019ce:	3001      	adds	r0, #1
 80019d0:	4213      	tst	r3, r2
 80019d2:	d102      	bne.n	80019da <HAL_PWREx_ControlVoltageScaling+0x3e>
 80019d4:	e7ee      	b.n	80019b4 <HAL_PWREx_ControlVoltageScaling+0x18>
 80019d6:	2800      	cmp	r0, #0
 80019d8:	d005      	beq.n	80019e6 <HAL_PWREx_ControlVoltageScaling+0x4a>
 80019da:	6963      	ldr	r3, [r4, #20]
 80019dc:	3801      	subs	r0, #1
 80019de:	4213      	tst	r3, r2
 80019e0:	d1f9      	bne.n	80019d6 <HAL_PWREx_ControlVoltageScaling+0x3a>
 80019e2:	2500      	movs	r5, #0
 80019e4:	e7e6      	b.n	80019b4 <HAL_PWREx_ControlVoltageScaling+0x18>
 80019e6:	2503      	movs	r5, #3
 80019e8:	e7e4      	b.n	80019b4 <HAL_PWREx_ControlVoltageScaling+0x18>
 80019ea:	46c0      	nop			; (mov r8, r8)
 80019ec:	40007000 	.word	0x40007000
 80019f0:	fffff9ff 	.word	0xfffff9ff
 80019f4:	20000000 	.word	0x20000000
 80019f8:	000f4240 	.word	0x000f4240

080019fc <HAL_RCC_OscConfig>:
 80019fc:	b5f0      	push	{r4, r5, r6, r7, lr}
 80019fe:	46ce      	mov	lr, r9
 8001a00:	4647      	mov	r7, r8
 8001a02:	b580      	push	{r7, lr}
 8001a04:	0004      	movs	r4, r0
 8001a06:	b083      	sub	sp, #12
 8001a08:	2800      	cmp	r0, #0
 8001a0a:	d100      	bne.n	8001a0e <HAL_RCC_OscConfig+0x12>
 8001a0c:	e0f5      	b.n	8001bfa <HAL_RCC_OscConfig+0x1fe>
 8001a0e:	6803      	ldr	r3, [r0, #0]
 8001a10:	07da      	lsls	r2, r3, #31
 8001a12:	d531      	bpl.n	8001a78 <HAL_RCC_OscConfig+0x7c>
 8001a14:	2238      	movs	r2, #56	; 0x38
 8001a16:	49c8      	ldr	r1, [pc, #800]	; (8001d38 <HAL_RCC_OscConfig+0x33c>)
 8001a18:	6888      	ldr	r0, [r1, #8]
 8001a1a:	68c9      	ldr	r1, [r1, #12]
 8001a1c:	4002      	ands	r2, r0
 8001a1e:	2a10      	cmp	r2, #16
 8001a20:	d100      	bne.n	8001a24 <HAL_RCC_OscConfig+0x28>
 8001a22:	e0f0      	b.n	8001c06 <HAL_RCC_OscConfig+0x20a>
 8001a24:	2a08      	cmp	r2, #8
 8001a26:	d100      	bne.n	8001a2a <HAL_RCC_OscConfig+0x2e>
 8001a28:	e0f1      	b.n	8001c0e <HAL_RCC_OscConfig+0x212>
 8001a2a:	2280      	movs	r2, #128	; 0x80
 8001a2c:	6863      	ldr	r3, [r4, #4]
 8001a2e:	0252      	lsls	r2, r2, #9
 8001a30:	4293      	cmp	r3, r2
 8001a32:	d100      	bne.n	8001a36 <HAL_RCC_OscConfig+0x3a>
 8001a34:	e0fe      	b.n	8001c34 <HAL_RCC_OscConfig+0x238>
 8001a36:	21a0      	movs	r1, #160	; 0xa0
 8001a38:	02c9      	lsls	r1, r1, #11
 8001a3a:	428b      	cmp	r3, r1
 8001a3c:	d100      	bne.n	8001a40 <HAL_RCC_OscConfig+0x44>
 8001a3e:	e1d9      	b.n	8001df4 <HAL_RCC_OscConfig+0x3f8>
 8001a40:	4dbd      	ldr	r5, [pc, #756]	; (8001d38 <HAL_RCC_OscConfig+0x33c>)
 8001a42:	49be      	ldr	r1, [pc, #760]	; (8001d3c <HAL_RCC_OscConfig+0x340>)
 8001a44:	682a      	ldr	r2, [r5, #0]
 8001a46:	400a      	ands	r2, r1
 8001a48:	602a      	str	r2, [r5, #0]
 8001a4a:	682a      	ldr	r2, [r5, #0]
 8001a4c:	49bc      	ldr	r1, [pc, #752]	; (8001d40 <HAL_RCC_OscConfig+0x344>)
 8001a4e:	400a      	ands	r2, r1
 8001a50:	602a      	str	r2, [r5, #0]
 8001a52:	2b00      	cmp	r3, #0
 8001a54:	d000      	beq.n	8001a58 <HAL_RCC_OscConfig+0x5c>
 8001a56:	e0f1      	b.n	8001c3c <HAL_RCC_OscConfig+0x240>
 8001a58:	f7ff f94e 	bl	8000cf8 <HAL_GetTick>
 8001a5c:	2780      	movs	r7, #128	; 0x80
 8001a5e:	0006      	movs	r6, r0
 8001a60:	02bf      	lsls	r7, r7, #10
 8001a62:	e005      	b.n	8001a70 <HAL_RCC_OscConfig+0x74>
 8001a64:	f7ff f948 	bl	8000cf8 <HAL_GetTick>
 8001a68:	1b80      	subs	r0, r0, r6
 8001a6a:	2864      	cmp	r0, #100	; 0x64
 8001a6c:	d900      	bls.n	8001a70 <HAL_RCC_OscConfig+0x74>
 8001a6e:	e139      	b.n	8001ce4 <HAL_RCC_OscConfig+0x2e8>
 8001a70:	682b      	ldr	r3, [r5, #0]
 8001a72:	423b      	tst	r3, r7
 8001a74:	d1f6      	bne.n	8001a64 <HAL_RCC_OscConfig+0x68>
 8001a76:	6823      	ldr	r3, [r4, #0]
 8001a78:	079a      	lsls	r2, r3, #30
 8001a7a:	d52c      	bpl.n	8001ad6 <HAL_RCC_OscConfig+0xda>
 8001a7c:	2338      	movs	r3, #56	; 0x38
 8001a7e:	4aae      	ldr	r2, [pc, #696]	; (8001d38 <HAL_RCC_OscConfig+0x33c>)
 8001a80:	6891      	ldr	r1, [r2, #8]
 8001a82:	400b      	ands	r3, r1
 8001a84:	68d1      	ldr	r1, [r2, #12]
 8001a86:	2b10      	cmp	r3, #16
 8001a88:	d100      	bne.n	8001a8c <HAL_RCC_OscConfig+0x90>
 8001a8a:	e0e8      	b.n	8001c5e <HAL_RCC_OscConfig+0x262>
 8001a8c:	2b00      	cmp	r3, #0
 8001a8e:	d000      	beq.n	8001a92 <HAL_RCC_OscConfig+0x96>
 8001a90:	e0ea      	b.n	8001c68 <HAL_RCC_OscConfig+0x26c>
 8001a92:	6813      	ldr	r3, [r2, #0]
 8001a94:	055b      	lsls	r3, r3, #21
 8001a96:	d500      	bpl.n	8001a9a <HAL_RCC_OscConfig+0x9e>
 8001a98:	e0ab      	b.n	8001bf2 <HAL_RCC_OscConfig+0x1f6>
 8001a9a:	6851      	ldr	r1, [r2, #4]
 8001a9c:	6963      	ldr	r3, [r4, #20]
 8001a9e:	48a9      	ldr	r0, [pc, #676]	; (8001d44 <HAL_RCC_OscConfig+0x348>)
 8001aa0:	021b      	lsls	r3, r3, #8
 8001aa2:	4001      	ands	r1, r0
 8001aa4:	430b      	orrs	r3, r1
 8001aa6:	6053      	str	r3, [r2, #4]
 8001aa8:	4aa3      	ldr	r2, [pc, #652]	; (8001d38 <HAL_RCC_OscConfig+0x33c>)
 8001aaa:	49a7      	ldr	r1, [pc, #668]	; (8001d48 <HAL_RCC_OscConfig+0x34c>)
 8001aac:	6813      	ldr	r3, [r2, #0]
 8001aae:	400b      	ands	r3, r1
 8001ab0:	6921      	ldr	r1, [r4, #16]
 8001ab2:	430b      	orrs	r3, r1
 8001ab4:	6013      	str	r3, [r2, #0]
 8001ab6:	6813      	ldr	r3, [r2, #0]
 8001ab8:	4aa4      	ldr	r2, [pc, #656]	; (8001d4c <HAL_RCC_OscConfig+0x350>)
 8001aba:	049b      	lsls	r3, r3, #18
 8001abc:	0f5b      	lsrs	r3, r3, #29
 8001abe:	40da      	lsrs	r2, r3
 8001ac0:	0013      	movs	r3, r2
 8001ac2:	4aa3      	ldr	r2, [pc, #652]	; (8001d50 <HAL_RCC_OscConfig+0x354>)
 8001ac4:	6013      	str	r3, [r2, #0]
 8001ac6:	4ba3      	ldr	r3, [pc, #652]	; (8001d54 <HAL_RCC_OscConfig+0x358>)
 8001ac8:	6818      	ldr	r0, [r3, #0]
 8001aca:	f7ff f8cf 	bl	8000c6c <HAL_InitTick>
 8001ace:	2800      	cmp	r0, #0
 8001ad0:	d000      	beq.n	8001ad4 <HAL_RCC_OscConfig+0xd8>
 8001ad2:	e092      	b.n	8001bfa <HAL_RCC_OscConfig+0x1fe>
 8001ad4:	6823      	ldr	r3, [r4, #0]
 8001ad6:	071a      	lsls	r2, r3, #28
 8001ad8:	d46d      	bmi.n	8001bb6 <HAL_RCC_OscConfig+0x1ba>
 8001ada:	075b      	lsls	r3, r3, #29
 8001adc:	d545      	bpl.n	8001b6a <HAL_RCC_OscConfig+0x16e>
 8001ade:	2338      	movs	r3, #56	; 0x38
 8001ae0:	4a95      	ldr	r2, [pc, #596]	; (8001d38 <HAL_RCC_OscConfig+0x33c>)
 8001ae2:	6891      	ldr	r1, [r2, #8]
 8001ae4:	400b      	ands	r3, r1
 8001ae6:	2b20      	cmp	r3, #32
 8001ae8:	d100      	bne.n	8001aec <HAL_RCC_OscConfig+0xf0>
 8001aea:	e0e3      	b.n	8001cb4 <HAL_RCC_OscConfig+0x2b8>
 8001aec:	2380      	movs	r3, #128	; 0x80
 8001aee:	2000      	movs	r0, #0
 8001af0:	6bd1      	ldr	r1, [r2, #60]	; 0x3c
 8001af2:	055b      	lsls	r3, r3, #21
 8001af4:	4681      	mov	r9, r0
 8001af6:	4219      	tst	r1, r3
 8001af8:	d108      	bne.n	8001b0c <HAL_RCC_OscConfig+0x110>
 8001afa:	6bd1      	ldr	r1, [r2, #60]	; 0x3c
 8001afc:	4319      	orrs	r1, r3
 8001afe:	63d1      	str	r1, [r2, #60]	; 0x3c
 8001b00:	6bd2      	ldr	r2, [r2, #60]	; 0x3c
 8001b02:	4013      	ands	r3, r2
 8001b04:	9301      	str	r3, [sp, #4]
 8001b06:	9b01      	ldr	r3, [sp, #4]
 8001b08:	2301      	movs	r3, #1
 8001b0a:	4699      	mov	r9, r3
 8001b0c:	2780      	movs	r7, #128	; 0x80
 8001b0e:	4e92      	ldr	r6, [pc, #584]	; (8001d58 <HAL_RCC_OscConfig+0x35c>)
 8001b10:	007f      	lsls	r7, r7, #1
 8001b12:	6833      	ldr	r3, [r6, #0]
 8001b14:	423b      	tst	r3, r7
 8001b16:	d100      	bne.n	8001b1a <HAL_RCC_OscConfig+0x11e>
 8001b18:	e0d5      	b.n	8001cc6 <HAL_RCC_OscConfig+0x2ca>
 8001b1a:	68a3      	ldr	r3, [r4, #8]
 8001b1c:	2b01      	cmp	r3, #1
 8001b1e:	d100      	bne.n	8001b22 <HAL_RCC_OscConfig+0x126>
 8001b20:	e124      	b.n	8001d6c <HAL_RCC_OscConfig+0x370>
 8001b22:	2b05      	cmp	r3, #5
 8001b24:	d100      	bne.n	8001b28 <HAL_RCC_OscConfig+0x12c>
 8001b26:	e1c4      	b.n	8001eb2 <HAL_RCC_OscConfig+0x4b6>
 8001b28:	2101      	movs	r1, #1
 8001b2a:	4e83      	ldr	r6, [pc, #524]	; (8001d38 <HAL_RCC_OscConfig+0x33c>)
 8001b2c:	6df2      	ldr	r2, [r6, #92]	; 0x5c
 8001b2e:	438a      	bics	r2, r1
 8001b30:	65f2      	str	r2, [r6, #92]	; 0x5c
 8001b32:	6df2      	ldr	r2, [r6, #92]	; 0x5c
 8001b34:	3103      	adds	r1, #3
 8001b36:	438a      	bics	r2, r1
 8001b38:	65f2      	str	r2, [r6, #92]	; 0x5c
 8001b3a:	2b00      	cmp	r3, #0
 8001b3c:	d000      	beq.n	8001b40 <HAL_RCC_OscConfig+0x144>
 8001b3e:	e119      	b.n	8001d74 <HAL_RCC_OscConfig+0x378>
 8001b40:	f7ff f8da 	bl	8000cf8 <HAL_GetTick>
 8001b44:	2302      	movs	r3, #2
 8001b46:	0007      	movs	r7, r0
 8001b48:	4698      	mov	r8, r3
 8001b4a:	4d84      	ldr	r5, [pc, #528]	; (8001d5c <HAL_RCC_OscConfig+0x360>)
 8001b4c:	e005      	b.n	8001b5a <HAL_RCC_OscConfig+0x15e>
 8001b4e:	f7ff f8d3 	bl	8000cf8 <HAL_GetTick>
 8001b52:	1bc0      	subs	r0, r0, r7
 8001b54:	42a8      	cmp	r0, r5
 8001b56:	d900      	bls.n	8001b5a <HAL_RCC_OscConfig+0x15e>
 8001b58:	e0c4      	b.n	8001ce4 <HAL_RCC_OscConfig+0x2e8>
 8001b5a:	4642      	mov	r2, r8
 8001b5c:	6df3      	ldr	r3, [r6, #92]	; 0x5c
 8001b5e:	421a      	tst	r2, r3
 8001b60:	d1f5      	bne.n	8001b4e <HAL_RCC_OscConfig+0x152>
 8001b62:	464b      	mov	r3, r9
 8001b64:	2b01      	cmp	r3, #1
 8001b66:	d100      	bne.n	8001b6a <HAL_RCC_OscConfig+0x16e>
 8001b68:	e15d      	b.n	8001e26 <HAL_RCC_OscConfig+0x42a>
 8001b6a:	69e3      	ldr	r3, [r4, #28]
 8001b6c:	2b00      	cmp	r3, #0
 8001b6e:	d020      	beq.n	8001bb2 <HAL_RCC_OscConfig+0x1b6>
 8001b70:	2238      	movs	r2, #56	; 0x38
 8001b72:	4d71      	ldr	r5, [pc, #452]	; (8001d38 <HAL_RCC_OscConfig+0x33c>)
 8001b74:	68a9      	ldr	r1, [r5, #8]
 8001b76:	400a      	ands	r2, r1
 8001b78:	2a10      	cmp	r2, #16
 8001b7a:	d100      	bne.n	8001b7e <HAL_RCC_OscConfig+0x182>
 8001b7c:	e10c      	b.n	8001d98 <HAL_RCC_OscConfig+0x39c>
 8001b7e:	2b02      	cmp	r3, #2
 8001b80:	d100      	bne.n	8001b84 <HAL_RCC_OscConfig+0x188>
 8001b82:	e156      	b.n	8001e32 <HAL_RCC_OscConfig+0x436>
 8001b84:	682b      	ldr	r3, [r5, #0]
 8001b86:	4a76      	ldr	r2, [pc, #472]	; (8001d60 <HAL_RCC_OscConfig+0x364>)
 8001b88:	2680      	movs	r6, #128	; 0x80
 8001b8a:	4013      	ands	r3, r2
 8001b8c:	602b      	str	r3, [r5, #0]
 8001b8e:	f7ff f8b3 	bl	8000cf8 <HAL_GetTick>
 8001b92:	04b6      	lsls	r6, r6, #18
 8001b94:	0004      	movs	r4, r0
 8001b96:	e005      	b.n	8001ba4 <HAL_RCC_OscConfig+0x1a8>
 8001b98:	f7ff f8ae 	bl	8000cf8 <HAL_GetTick>
 8001b9c:	1b00      	subs	r0, r0, r4
 8001b9e:	2802      	cmp	r0, #2
 8001ba0:	d900      	bls.n	8001ba4 <HAL_RCC_OscConfig+0x1a8>
 8001ba2:	e09f      	b.n	8001ce4 <HAL_RCC_OscConfig+0x2e8>
 8001ba4:	682b      	ldr	r3, [r5, #0]
 8001ba6:	4233      	tst	r3, r6
 8001ba8:	d1f6      	bne.n	8001b98 <HAL_RCC_OscConfig+0x19c>
 8001baa:	68eb      	ldr	r3, [r5, #12]
 8001bac:	4a6d      	ldr	r2, [pc, #436]	; (8001d64 <HAL_RCC_OscConfig+0x368>)
 8001bae:	4013      	ands	r3, r2
 8001bb0:	60eb      	str	r3, [r5, #12]
 8001bb2:	2000      	movs	r0, #0
 8001bb4:	e022      	b.n	8001bfc <HAL_RCC_OscConfig+0x200>
 8001bb6:	2238      	movs	r2, #56	; 0x38
 8001bb8:	4d5f      	ldr	r5, [pc, #380]	; (8001d38 <HAL_RCC_OscConfig+0x33c>)
 8001bba:	68a9      	ldr	r1, [r5, #8]
 8001bbc:	400a      	ands	r2, r1
 8001bbe:	2a18      	cmp	r2, #24
 8001bc0:	d02f      	beq.n	8001c22 <HAL_RCC_OscConfig+0x226>
 8001bc2:	69a3      	ldr	r3, [r4, #24]
 8001bc4:	2b00      	cmp	r3, #0
 8001bc6:	d100      	bne.n	8001bca <HAL_RCC_OscConfig+0x1ce>
 8001bc8:	e08e      	b.n	8001ce8 <HAL_RCC_OscConfig+0x2ec>
 8001bca:	2201      	movs	r2, #1
 8001bcc:	6e2b      	ldr	r3, [r5, #96]	; 0x60
 8001bce:	2702      	movs	r7, #2
 8001bd0:	4313      	orrs	r3, r2
 8001bd2:	662b      	str	r3, [r5, #96]	; 0x60
 8001bd4:	f7ff f890 	bl	8000cf8 <HAL_GetTick>
 8001bd8:	0006      	movs	r6, r0
 8001bda:	e005      	b.n	8001be8 <HAL_RCC_OscConfig+0x1ec>
 8001bdc:	f7ff f88c 	bl	8000cf8 <HAL_GetTick>
 8001be0:	1b80      	subs	r0, r0, r6
 8001be2:	2802      	cmp	r0, #2
 8001be4:	d900      	bls.n	8001be8 <HAL_RCC_OscConfig+0x1ec>
 8001be6:	e07d      	b.n	8001ce4 <HAL_RCC_OscConfig+0x2e8>
 8001be8:	6e2b      	ldr	r3, [r5, #96]	; 0x60
 8001bea:	421f      	tst	r7, r3
 8001bec:	d0f6      	beq.n	8001bdc <HAL_RCC_OscConfig+0x1e0>
 8001bee:	6823      	ldr	r3, [r4, #0]
 8001bf0:	e773      	b.n	8001ada <HAL_RCC_OscConfig+0xde>
 8001bf2:	68e3      	ldr	r3, [r4, #12]
 8001bf4:	2b00      	cmp	r3, #0
 8001bf6:	d000      	beq.n	8001bfa <HAL_RCC_OscConfig+0x1fe>
 8001bf8:	e74f      	b.n	8001a9a <HAL_RCC_OscConfig+0x9e>
 8001bfa:	2001      	movs	r0, #1
 8001bfc:	b003      	add	sp, #12
 8001bfe:	bcc0      	pop	{r6, r7}
 8001c00:	46b9      	mov	r9, r7
 8001c02:	46b0      	mov	r8, r6
 8001c04:	bdf0      	pop	{r4, r5, r6, r7, pc}
 8001c06:	43c9      	mvns	r1, r1
 8001c08:	078a      	lsls	r2, r1, #30
 8001c0a:	d000      	beq.n	8001c0e <HAL_RCC_OscConfig+0x212>
 8001c0c:	e70d      	b.n	8001a2a <HAL_RCC_OscConfig+0x2e>
 8001c0e:	4a4a      	ldr	r2, [pc, #296]	; (8001d38 <HAL_RCC_OscConfig+0x33c>)
 8001c10:	6812      	ldr	r2, [r2, #0]
 8001c12:	0392      	lsls	r2, r2, #14
 8001c14:	d400      	bmi.n	8001c18 <HAL_RCC_OscConfig+0x21c>
 8001c16:	e72f      	b.n	8001a78 <HAL_RCC_OscConfig+0x7c>
 8001c18:	6862      	ldr	r2, [r4, #4]
 8001c1a:	2a00      	cmp	r2, #0
 8001c1c:	d000      	beq.n	8001c20 <HAL_RCC_OscConfig+0x224>
 8001c1e:	e72b      	b.n	8001a78 <HAL_RCC_OscConfig+0x7c>
 8001c20:	e7eb      	b.n	8001bfa <HAL_RCC_OscConfig+0x1fe>
 8001c22:	6e2a      	ldr	r2, [r5, #96]	; 0x60
 8001c24:	0792      	lsls	r2, r2, #30
 8001c26:	d400      	bmi.n	8001c2a <HAL_RCC_OscConfig+0x22e>
 8001c28:	e757      	b.n	8001ada <HAL_RCC_OscConfig+0xde>
 8001c2a:	69a2      	ldr	r2, [r4, #24]
 8001c2c:	2a00      	cmp	r2, #0
 8001c2e:	d000      	beq.n	8001c32 <HAL_RCC_OscConfig+0x236>
 8001c30:	e753      	b.n	8001ada <HAL_RCC_OscConfig+0xde>
 8001c32:	e7e2      	b.n	8001bfa <HAL_RCC_OscConfig+0x1fe>
 8001c34:	4a40      	ldr	r2, [pc, #256]	; (8001d38 <HAL_RCC_OscConfig+0x33c>)
 8001c36:	6811      	ldr	r1, [r2, #0]
 8001c38:	430b      	orrs	r3, r1
 8001c3a:	6013      	str	r3, [r2, #0]
 8001c3c:	f7ff f85c 	bl	8000cf8 <HAL_GetTick>
 8001c40:	2680      	movs	r6, #128	; 0x80
 8001c42:	0005      	movs	r5, r0
 8001c44:	4f3c      	ldr	r7, [pc, #240]	; (8001d38 <HAL_RCC_OscConfig+0x33c>)
 8001c46:	02b6      	lsls	r6, r6, #10
 8001c48:	e004      	b.n	8001c54 <HAL_RCC_OscConfig+0x258>
 8001c4a:	f7ff f855 	bl	8000cf8 <HAL_GetTick>
 8001c4e:	1b40      	subs	r0, r0, r5
 8001c50:	2864      	cmp	r0, #100	; 0x64
 8001c52:	d847      	bhi.n	8001ce4 <HAL_RCC_OscConfig+0x2e8>
 8001c54:	683b      	ldr	r3, [r7, #0]
 8001c56:	4233      	tst	r3, r6
 8001c58:	d0f7      	beq.n	8001c4a <HAL_RCC_OscConfig+0x24e>
 8001c5a:	6823      	ldr	r3, [r4, #0]
 8001c5c:	e70c      	b.n	8001a78 <HAL_RCC_OscConfig+0x7c>
 8001c5e:	3b0d      	subs	r3, #13
 8001c60:	400b      	ands	r3, r1
 8001c62:	2b02      	cmp	r3, #2
 8001c64:	d100      	bne.n	8001c68 <HAL_RCC_OscConfig+0x26c>
 8001c66:	e0cf      	b.n	8001e08 <HAL_RCC_OscConfig+0x40c>
 8001c68:	68e3      	ldr	r3, [r4, #12]
 8001c6a:	4d33      	ldr	r5, [pc, #204]	; (8001d38 <HAL_RCC_OscConfig+0x33c>)
 8001c6c:	2b00      	cmp	r3, #0
 8001c6e:	d04e      	beq.n	8001d0e <HAL_RCC_OscConfig+0x312>
 8001c70:	682b      	ldr	r3, [r5, #0]
 8001c72:	4a35      	ldr	r2, [pc, #212]	; (8001d48 <HAL_RCC_OscConfig+0x34c>)
 8001c74:	2780      	movs	r7, #128	; 0x80
 8001c76:	4013      	ands	r3, r2
 8001c78:	6922      	ldr	r2, [r4, #16]
 8001c7a:	00ff      	lsls	r7, r7, #3
 8001c7c:	4313      	orrs	r3, r2
 8001c7e:	602b      	str	r3, [r5, #0]
 8001c80:	2380      	movs	r3, #128	; 0x80
 8001c82:	682a      	ldr	r2, [r5, #0]
 8001c84:	005b      	lsls	r3, r3, #1
 8001c86:	4313      	orrs	r3, r2
 8001c88:	602b      	str	r3, [r5, #0]
 8001c8a:	f7ff f835 	bl	8000cf8 <HAL_GetTick>
 8001c8e:	0006      	movs	r6, r0
 8001c90:	e004      	b.n	8001c9c <HAL_RCC_OscConfig+0x2a0>
 8001c92:	f7ff f831 	bl	8000cf8 <HAL_GetTick>
 8001c96:	1b80      	subs	r0, r0, r6
 8001c98:	2802      	cmp	r0, #2
 8001c9a:	d823      	bhi.n	8001ce4 <HAL_RCC_OscConfig+0x2e8>
 8001c9c:	682b      	ldr	r3, [r5, #0]
 8001c9e:	423b      	tst	r3, r7
 8001ca0:	d0f7      	beq.n	8001c92 <HAL_RCC_OscConfig+0x296>
 8001ca2:	686a      	ldr	r2, [r5, #4]
 8001ca4:	6963      	ldr	r3, [r4, #20]
 8001ca6:	4927      	ldr	r1, [pc, #156]	; (8001d44 <HAL_RCC_OscConfig+0x348>)
 8001ca8:	021b      	lsls	r3, r3, #8
 8001caa:	400a      	ands	r2, r1
 8001cac:	4313      	orrs	r3, r2
 8001cae:	606b      	str	r3, [r5, #4]
 8001cb0:	6823      	ldr	r3, [r4, #0]
 8001cb2:	e710      	b.n	8001ad6 <HAL_RCC_OscConfig+0xda>
 8001cb4:	6dd3      	ldr	r3, [r2, #92]	; 0x5c
 8001cb6:	079b      	lsls	r3, r3, #30
 8001cb8:	d400      	bmi.n	8001cbc <HAL_RCC_OscConfig+0x2c0>
 8001cba:	e756      	b.n	8001b6a <HAL_RCC_OscConfig+0x16e>
 8001cbc:	68a3      	ldr	r3, [r4, #8]
 8001cbe:	2b00      	cmp	r3, #0
 8001cc0:	d000      	beq.n	8001cc4 <HAL_RCC_OscConfig+0x2c8>
 8001cc2:	e752      	b.n	8001b6a <HAL_RCC_OscConfig+0x16e>
 8001cc4:	e799      	b.n	8001bfa <HAL_RCC_OscConfig+0x1fe>
 8001cc6:	6833      	ldr	r3, [r6, #0]
 8001cc8:	433b      	orrs	r3, r7
 8001cca:	6033      	str	r3, [r6, #0]
 8001ccc:	f7ff f814 	bl	8000cf8 <HAL_GetTick>
 8001cd0:	0005      	movs	r5, r0
 8001cd2:	6833      	ldr	r3, [r6, #0]
 8001cd4:	423b      	tst	r3, r7
 8001cd6:	d000      	beq.n	8001cda <HAL_RCC_OscConfig+0x2de>
 8001cd8:	e71f      	b.n	8001b1a <HAL_RCC_OscConfig+0x11e>
 8001cda:	f7ff f80d 	bl	8000cf8 <HAL_GetTick>
 8001cde:	1b40      	subs	r0, r0, r5
 8001ce0:	2802      	cmp	r0, #2
 8001ce2:	d9f6      	bls.n	8001cd2 <HAL_RCC_OscConfig+0x2d6>
 8001ce4:	2003      	movs	r0, #3
 8001ce6:	e789      	b.n	8001bfc <HAL_RCC_OscConfig+0x200>
 8001ce8:	2201      	movs	r2, #1
 8001cea:	6e2b      	ldr	r3, [r5, #96]	; 0x60
 8001cec:	2702      	movs	r7, #2
 8001cee:	4393      	bics	r3, r2
 8001cf0:	662b      	str	r3, [r5, #96]	; 0x60
 8001cf2:	f7ff f801 	bl	8000cf8 <HAL_GetTick>
 8001cf6:	0006      	movs	r6, r0
 8001cf8:	e004      	b.n	8001d04 <HAL_RCC_OscConfig+0x308>
 8001cfa:	f7fe fffd 	bl	8000cf8 <HAL_GetTick>
 8001cfe:	1b80      	subs	r0, r0, r6
 8001d00:	2802      	cmp	r0, #2
 8001d02:	d8ef      	bhi.n	8001ce4 <HAL_RCC_OscConfig+0x2e8>
 8001d04:	6e2b      	ldr	r3, [r5, #96]	; 0x60
 8001d06:	421f      	tst	r7, r3
 8001d08:	d1f7      	bne.n	8001cfa <HAL_RCC_OscConfig+0x2fe>
 8001d0a:	6823      	ldr	r3, [r4, #0]
 8001d0c:	e6e5      	b.n	8001ada <HAL_RCC_OscConfig+0xde>
 8001d0e:	682b      	ldr	r3, [r5, #0]
 8001d10:	4a15      	ldr	r2, [pc, #84]	; (8001d68 <HAL_RCC_OscConfig+0x36c>)
 8001d12:	2780      	movs	r7, #128	; 0x80
 8001d14:	4013      	ands	r3, r2
 8001d16:	602b      	str	r3, [r5, #0]
 8001d18:	f7fe ffee 	bl	8000cf8 <HAL_GetTick>
 8001d1c:	00ff      	lsls	r7, r7, #3
 8001d1e:	0006      	movs	r6, r0
 8001d20:	e004      	b.n	8001d2c <HAL_RCC_OscConfig+0x330>
 8001d22:	f7fe ffe9 	bl	8000cf8 <HAL_GetTick>
 8001d26:	1b80      	subs	r0, r0, r6
 8001d28:	2802      	cmp	r0, #2
 8001d2a:	d8db      	bhi.n	8001ce4 <HAL_RCC_OscConfig+0x2e8>
 8001d2c:	682b      	ldr	r3, [r5, #0]
 8001d2e:	423b      	tst	r3, r7
 8001d30:	d1f7      	bne.n	8001d22 <HAL_RCC_OscConfig+0x326>
 8001d32:	6823      	ldr	r3, [r4, #0]
 8001d34:	e6cf      	b.n	8001ad6 <HAL_RCC_OscConfig+0xda>
 8001d36:	46c0      	nop			; (mov r8, r8)
 8001d38:	40021000 	.word	0x40021000
 8001d3c:	fffeffff 	.word	0xfffeffff
 8001d40:	fffbffff 	.word	0xfffbffff
 8001d44:	ffff80ff 	.word	0xffff80ff
 8001d48:	ffffc7ff 	.word	0xffffc7ff
 8001d4c:	00f42400 	.word	0x00f42400
 8001d50:	20000000 	.word	0x20000000
 8001d54:	20000008 	.word	0x20000008
 8001d58:	40007000 	.word	0x40007000
 8001d5c:	00001388 	.word	0x00001388
 8001d60:	feffffff 	.word	0xfeffffff
 8001d64:	eefefffc 	.word	0xeefefffc
 8001d68:	fffffeff 	.word	0xfffffeff
 8001d6c:	4956      	ldr	r1, [pc, #344]	; (8001ec8 <HAL_RCC_OscConfig+0x4cc>)
 8001d6e:	6dca      	ldr	r2, [r1, #92]	; 0x5c
 8001d70:	4313      	orrs	r3, r2
 8001d72:	65cb      	str	r3, [r1, #92]	; 0x5c
 8001d74:	f7fe ffc0 	bl	8000cf8 <HAL_GetTick>
 8001d78:	4b53      	ldr	r3, [pc, #332]	; (8001ec8 <HAL_RCC_OscConfig+0x4cc>)
 8001d7a:	0006      	movs	r6, r0
 8001d7c:	4698      	mov	r8, r3
 8001d7e:	2702      	movs	r7, #2
 8001d80:	4d52      	ldr	r5, [pc, #328]	; (8001ecc <HAL_RCC_OscConfig+0x4d0>)
 8001d82:	e004      	b.n	8001d8e <HAL_RCC_OscConfig+0x392>
 8001d84:	f7fe ffb8 	bl	8000cf8 <HAL_GetTick>
 8001d88:	1b80      	subs	r0, r0, r6
 8001d8a:	42a8      	cmp	r0, r5
 8001d8c:	d8aa      	bhi.n	8001ce4 <HAL_RCC_OscConfig+0x2e8>
 8001d8e:	4643      	mov	r3, r8
 8001d90:	6ddb      	ldr	r3, [r3, #92]	; 0x5c
 8001d92:	421f      	tst	r7, r3
 8001d94:	d0f6      	beq.n	8001d84 <HAL_RCC_OscConfig+0x388>
 8001d96:	e6e4      	b.n	8001b62 <HAL_RCC_OscConfig+0x166>
 8001d98:	2b01      	cmp	r3, #1
 8001d9a:	d100      	bne.n	8001d9e <HAL_RCC_OscConfig+0x3a2>
 8001d9c:	e72d      	b.n	8001bfa <HAL_RCC_OscConfig+0x1fe>
 8001d9e:	2303      	movs	r3, #3
 8001da0:	68ea      	ldr	r2, [r5, #12]
 8001da2:	6a21      	ldr	r1, [r4, #32]
 8001da4:	4013      	ands	r3, r2
 8001da6:	428b      	cmp	r3, r1
 8001da8:	d000      	beq.n	8001dac <HAL_RCC_OscConfig+0x3b0>
 8001daa:	e726      	b.n	8001bfa <HAL_RCC_OscConfig+0x1fe>
 8001dac:	2370      	movs	r3, #112	; 0x70
 8001dae:	6a61      	ldr	r1, [r4, #36]	; 0x24
 8001db0:	4013      	ands	r3, r2
 8001db2:	428b      	cmp	r3, r1
 8001db4:	d000      	beq.n	8001db8 <HAL_RCC_OscConfig+0x3bc>
 8001db6:	e720      	b.n	8001bfa <HAL_RCC_OscConfig+0x1fe>
 8001db8:	21fe      	movs	r1, #254	; 0xfe
 8001dba:	6aa3      	ldr	r3, [r4, #40]	; 0x28
 8001dbc:	01c9      	lsls	r1, r1, #7
 8001dbe:	4011      	ands	r1, r2
 8001dc0:	021b      	lsls	r3, r3, #8
 8001dc2:	4299      	cmp	r1, r3
 8001dc4:	d000      	beq.n	8001dc8 <HAL_RCC_OscConfig+0x3cc>
 8001dc6:	e718      	b.n	8001bfa <HAL_RCC_OscConfig+0x1fe>
 8001dc8:	23f8      	movs	r3, #248	; 0xf8
 8001dca:	6ae1      	ldr	r1, [r4, #44]	; 0x2c
 8001dcc:	039b      	lsls	r3, r3, #14
 8001dce:	4013      	ands	r3, r2
 8001dd0:	428b      	cmp	r3, r1
 8001dd2:	d000      	beq.n	8001dd6 <HAL_RCC_OscConfig+0x3da>
 8001dd4:	e711      	b.n	8001bfa <HAL_RCC_OscConfig+0x1fe>
 8001dd6:	23e0      	movs	r3, #224	; 0xe0
 8001dd8:	6b21      	ldr	r1, [r4, #48]	; 0x30
 8001dda:	051b      	lsls	r3, r3, #20
 8001ddc:	4013      	ands	r3, r2
 8001dde:	428b      	cmp	r3, r1
 8001de0:	d000      	beq.n	8001de4 <HAL_RCC_OscConfig+0x3e8>
 8001de2:	e70a      	b.n	8001bfa <HAL_RCC_OscConfig+0x1fe>
 8001de4:	6b63      	ldr	r3, [r4, #52]	; 0x34
 8001de6:	0f52      	lsrs	r2, r2, #29
 8001de8:	0752      	lsls	r2, r2, #29
 8001dea:	429a      	cmp	r2, r3
 8001dec:	d000      	beq.n	8001df0 <HAL_RCC_OscConfig+0x3f4>
 8001dee:	e704      	b.n	8001bfa <HAL_RCC_OscConfig+0x1fe>
 8001df0:	2000      	movs	r0, #0
 8001df2:	e703      	b.n	8001bfc <HAL_RCC_OscConfig+0x200>
 8001df4:	2180      	movs	r1, #128	; 0x80
 8001df6:	4b34      	ldr	r3, [pc, #208]	; (8001ec8 <HAL_RCC_OscConfig+0x4cc>)
 8001df8:	02c9      	lsls	r1, r1, #11
 8001dfa:	6818      	ldr	r0, [r3, #0]
 8001dfc:	4301      	orrs	r1, r0
 8001dfe:	6019      	str	r1, [r3, #0]
 8001e00:	6819      	ldr	r1, [r3, #0]
 8001e02:	430a      	orrs	r2, r1
 8001e04:	601a      	str	r2, [r3, #0]
 8001e06:	e719      	b.n	8001c3c <HAL_RCC_OscConfig+0x240>
 8001e08:	6813      	ldr	r3, [r2, #0]
 8001e0a:	055b      	lsls	r3, r3, #21
 8001e0c:	d503      	bpl.n	8001e16 <HAL_RCC_OscConfig+0x41a>
 8001e0e:	68e3      	ldr	r3, [r4, #12]
 8001e10:	2b00      	cmp	r3, #0
 8001e12:	d100      	bne.n	8001e16 <HAL_RCC_OscConfig+0x41a>
 8001e14:	e6f1      	b.n	8001bfa <HAL_RCC_OscConfig+0x1fe>
 8001e16:	6851      	ldr	r1, [r2, #4]
 8001e18:	6963      	ldr	r3, [r4, #20]
 8001e1a:	482d      	ldr	r0, [pc, #180]	; (8001ed0 <HAL_RCC_OscConfig+0x4d4>)
 8001e1c:	021b      	lsls	r3, r3, #8
 8001e1e:	4001      	ands	r1, r0
 8001e20:	430b      	orrs	r3, r1
 8001e22:	6053      	str	r3, [r2, #4]
 8001e24:	e64f      	b.n	8001ac6 <HAL_RCC_OscConfig+0xca>
 8001e26:	4a28      	ldr	r2, [pc, #160]	; (8001ec8 <HAL_RCC_OscConfig+0x4cc>)
 8001e28:	492a      	ldr	r1, [pc, #168]	; (8001ed4 <HAL_RCC_OscConfig+0x4d8>)
 8001e2a:	6bd3      	ldr	r3, [r2, #60]	; 0x3c
 8001e2c:	400b      	ands	r3, r1
 8001e2e:	63d3      	str	r3, [r2, #60]	; 0x3c
 8001e30:	e69b      	b.n	8001b6a <HAL_RCC_OscConfig+0x16e>
 8001e32:	682b      	ldr	r3, [r5, #0]
 8001e34:	4a28      	ldr	r2, [pc, #160]	; (8001ed8 <HAL_RCC_OscConfig+0x4dc>)
 8001e36:	2780      	movs	r7, #128	; 0x80
 8001e38:	4013      	ands	r3, r2
 8001e3a:	602b      	str	r3, [r5, #0]
 8001e3c:	f7fe ff5c 	bl	8000cf8 <HAL_GetTick>
 8001e40:	04bf      	lsls	r7, r7, #18
 8001e42:	0006      	movs	r6, r0
 8001e44:	e005      	b.n	8001e52 <HAL_RCC_OscConfig+0x456>
 8001e46:	f7fe ff57 	bl	8000cf8 <HAL_GetTick>
 8001e4a:	1b80      	subs	r0, r0, r6
 8001e4c:	2802      	cmp	r0, #2
 8001e4e:	d900      	bls.n	8001e52 <HAL_RCC_OscConfig+0x456>
 8001e50:	e748      	b.n	8001ce4 <HAL_RCC_OscConfig+0x2e8>
 8001e52:	682b      	ldr	r3, [r5, #0]
 8001e54:	423b      	tst	r3, r7
 8001e56:	d1f6      	bne.n	8001e46 <HAL_RCC_OscConfig+0x44a>
 8001e58:	6a61      	ldr	r1, [r4, #36]	; 0x24
 8001e5a:	6a23      	ldr	r3, [r4, #32]
 8001e5c:	68ea      	ldr	r2, [r5, #12]
 8001e5e:	430b      	orrs	r3, r1
 8001e60:	491e      	ldr	r1, [pc, #120]	; (8001edc <HAL_RCC_OscConfig+0x4e0>)
 8001e62:	4e19      	ldr	r6, [pc, #100]	; (8001ec8 <HAL_RCC_OscConfig+0x4cc>)
 8001e64:	400a      	ands	r2, r1
 8001e66:	4313      	orrs	r3, r2
 8001e68:	6ae2      	ldr	r2, [r4, #44]	; 0x2c
 8001e6a:	4313      	orrs	r3, r2
 8001e6c:	6b22      	ldr	r2, [r4, #48]	; 0x30
 8001e6e:	4313      	orrs	r3, r2
 8001e70:	6b62      	ldr	r2, [r4, #52]	; 0x34
 8001e72:	4313      	orrs	r3, r2
 8001e74:	6aa2      	ldr	r2, [r4, #40]	; 0x28
 8001e76:	0212      	lsls	r2, r2, #8
 8001e78:	4313      	orrs	r3, r2
 8001e7a:	60eb      	str	r3, [r5, #12]
 8001e7c:	2380      	movs	r3, #128	; 0x80
 8001e7e:	682a      	ldr	r2, [r5, #0]
 8001e80:	045b      	lsls	r3, r3, #17
 8001e82:	4313      	orrs	r3, r2
 8001e84:	602b      	str	r3, [r5, #0]
 8001e86:	2380      	movs	r3, #128	; 0x80
 8001e88:	68ea      	ldr	r2, [r5, #12]
 8001e8a:	055b      	lsls	r3, r3, #21
 8001e8c:	4313      	orrs	r3, r2
 8001e8e:	60eb      	str	r3, [r5, #12]
 8001e90:	f7fe ff32 	bl	8000cf8 <HAL_GetTick>
 8001e94:	2580      	movs	r5, #128	; 0x80
 8001e96:	0004      	movs	r4, r0
 8001e98:	04ad      	lsls	r5, r5, #18
 8001e9a:	e005      	b.n	8001ea8 <HAL_RCC_OscConfig+0x4ac>
 8001e9c:	f7fe ff2c 	bl	8000cf8 <HAL_GetTick>
 8001ea0:	1b00      	subs	r0, r0, r4
 8001ea2:	2802      	cmp	r0, #2
 8001ea4:	d900      	bls.n	8001ea8 <HAL_RCC_OscConfig+0x4ac>
 8001ea6:	e71d      	b.n	8001ce4 <HAL_RCC_OscConfig+0x2e8>
 8001ea8:	6833      	ldr	r3, [r6, #0]
 8001eaa:	422b      	tst	r3, r5
 8001eac:	d0f6      	beq.n	8001e9c <HAL_RCC_OscConfig+0x4a0>
 8001eae:	2000      	movs	r0, #0
 8001eb0:	e6a4      	b.n	8001bfc <HAL_RCC_OscConfig+0x200>
 8001eb2:	2104      	movs	r1, #4
 8001eb4:	4b04      	ldr	r3, [pc, #16]	; (8001ec8 <HAL_RCC_OscConfig+0x4cc>)
 8001eb6:	6dda      	ldr	r2, [r3, #92]	; 0x5c
 8001eb8:	430a      	orrs	r2, r1
 8001eba:	65da      	str	r2, [r3, #92]	; 0x5c
 8001ebc:	6dda      	ldr	r2, [r3, #92]	; 0x5c
 8001ebe:	3903      	subs	r1, #3
 8001ec0:	430a      	orrs	r2, r1
 8001ec2:	65da      	str	r2, [r3, #92]	; 0x5c
 8001ec4:	e756      	b.n	8001d74 <HAL_RCC_OscConfig+0x378>
 8001ec6:	46c0      	nop			; (mov r8, r8)
 8001ec8:	40021000 	.word	0x40021000
 8001ecc:	00001388 	.word	0x00001388
 8001ed0:	ffff80ff 	.word	0xffff80ff
 8001ed4:	efffffff 	.word	0xefffffff
 8001ed8:	feffffff 	.word	0xfeffffff
 8001edc:	11c1808c 	.word	0x11c1808c

08001ee0 <HAL_RCC_GetSysClockFreq>:
 8001ee0:	2338      	movs	r3, #56	; 0x38
 8001ee2:	4a20      	ldr	r2, [pc, #128]	; (8001f64 <HAL_RCC_GetSysClockFreq+0x84>)
 8001ee4:	b510      	push	{r4, lr}
 8001ee6:	6891      	ldr	r1, [r2, #8]
 8001ee8:	420b      	tst	r3, r1
 8001eea:	d105      	bne.n	8001ef8 <HAL_RCC_GetSysClockFreq+0x18>
 8001eec:	6813      	ldr	r3, [r2, #0]
 8001eee:	481e      	ldr	r0, [pc, #120]	; (8001f68 <HAL_RCC_GetSysClockFreq+0x88>)
 8001ef0:	049b      	lsls	r3, r3, #18
 8001ef2:	0f5b      	lsrs	r3, r3, #29
 8001ef4:	40d8      	lsrs	r0, r3
 8001ef6:	bd10      	pop	{r4, pc}
 8001ef8:	6891      	ldr	r1, [r2, #8]
 8001efa:	4019      	ands	r1, r3
 8001efc:	2908      	cmp	r1, #8
 8001efe:	d011      	beq.n	8001f24 <HAL_RCC_GetSysClockFreq+0x44>
 8001f00:	6891      	ldr	r1, [r2, #8]
 8001f02:	4019      	ands	r1, r3
 8001f04:	2910      	cmp	r1, #16
 8001f06:	d00f      	beq.n	8001f28 <HAL_RCC_GetSysClockFreq+0x48>
 8001f08:	6891      	ldr	r1, [r2, #8]
 8001f0a:	4019      	ands	r1, r3
 8001f0c:	2920      	cmp	r1, #32
 8001f0e:	d021      	beq.n	8001f54 <HAL_RCC_GetSysClockFreq+0x74>
 8001f10:	6890      	ldr	r0, [r2, #8]
 8001f12:	4018      	ands	r0, r3
 8001f14:	3818      	subs	r0, #24
 8001f16:	4243      	negs	r3, r0
 8001f18:	4158      	adcs	r0, r3
 8001f1a:	23fa      	movs	r3, #250	; 0xfa
 8001f1c:	4240      	negs	r0, r0
 8001f1e:	01db      	lsls	r3, r3, #7
 8001f20:	4018      	ands	r0, r3
 8001f22:	e7e8      	b.n	8001ef6 <HAL_RCC_GetSysClockFreq+0x16>
 8001f24:	4811      	ldr	r0, [pc, #68]	; (8001f6c <HAL_RCC_GetSysClockFreq+0x8c>)
 8001f26:	e7e6      	b.n	8001ef6 <HAL_RCC_GetSysClockFreq+0x16>
 8001f28:	68d3      	ldr	r3, [r2, #12]
 8001f2a:	68d1      	ldr	r1, [r2, #12]
 8001f2c:	43db      	mvns	r3, r3
 8001f2e:	68d0      	ldr	r0, [r2, #12]
 8001f30:	0649      	lsls	r1, r1, #25
 8001f32:	0f49      	lsrs	r1, r1, #29
 8001f34:	0440      	lsls	r0, r0, #17
 8001f36:	3101      	adds	r1, #1
 8001f38:	0e44      	lsrs	r4, r0, #25
 8001f3a:	079b      	lsls	r3, r3, #30
 8001f3c:	d00d      	beq.n	8001f5a <HAL_RCC_GetSysClockFreq+0x7a>
 8001f3e:	480a      	ldr	r0, [pc, #40]	; (8001f68 <HAL_RCC_GetSysClockFreq+0x88>)
 8001f40:	f7fe f8e0 	bl	8000104 <__udivsi3>
 8001f44:	4360      	muls	r0, r4
 8001f46:	4b07      	ldr	r3, [pc, #28]	; (8001f64 <HAL_RCC_GetSysClockFreq+0x84>)
 8001f48:	68d9      	ldr	r1, [r3, #12]
 8001f4a:	0f49      	lsrs	r1, r1, #29
 8001f4c:	3101      	adds	r1, #1
 8001f4e:	f7fe f8d9 	bl	8000104 <__udivsi3>
 8001f52:	e7d0      	b.n	8001ef6 <HAL_RCC_GetSysClockFreq+0x16>
 8001f54:	2080      	movs	r0, #128	; 0x80
 8001f56:	0200      	lsls	r0, r0, #8
 8001f58:	e7cd      	b.n	8001ef6 <HAL_RCC_GetSysClockFreq+0x16>
 8001f5a:	4804      	ldr	r0, [pc, #16]	; (8001f6c <HAL_RCC_GetSysClockFreq+0x8c>)
 8001f5c:	f7fe f8d2 	bl	8000104 <__udivsi3>
 8001f60:	4360      	muls	r0, r4
 8001f62:	e7f0      	b.n	8001f46 <HAL_RCC_GetSysClockFreq+0x66>
 8001f64:	40021000 	.word	0x40021000
 8001f68:	00f42400 	.word	0x00f42400
 8001f6c:	007a1200 	.word	0x007a1200

08001f70 <HAL_RCC_ClockConfig>:
 8001f70:	b5f8      	push	{r3, r4, r5, r6, r7, lr}
 8001f72:	46ce      	mov	lr, r9
 8001f74:	4647      	mov	r7, r8
 8001f76:	0005      	movs	r5, r0
 8001f78:	000c      	movs	r4, r1
 8001f7a:	b580      	push	{r7, lr}
 8001f7c:	2800      	cmp	r0, #0
 8001f7e:	d026      	beq.n	8001fce <HAL_RCC_ClockConfig+0x5e>
 8001f80:	2207      	movs	r2, #7
 8001f82:	4e57      	ldr	r6, [pc, #348]	; (80020e0 <HAL_RCC_ClockConfig+0x170>)
 8001f84:	6833      	ldr	r3, [r6, #0]
 8001f86:	4013      	ands	r3, r2
 8001f88:	428b      	cmp	r3, r1
 8001f8a:	d35e      	bcc.n	800204a <HAL_RCC_ClockConfig+0xda>
 8001f8c:	682b      	ldr	r3, [r5, #0]
 8001f8e:	079a      	lsls	r2, r3, #30
 8001f90:	d50e      	bpl.n	8001fb0 <HAL_RCC_ClockConfig+0x40>
 8001f92:	075a      	lsls	r2, r3, #29
 8001f94:	d505      	bpl.n	8001fa2 <HAL_RCC_ClockConfig+0x32>
 8001f96:	22e0      	movs	r2, #224	; 0xe0
 8001f98:	4952      	ldr	r1, [pc, #328]	; (80020e4 <HAL_RCC_ClockConfig+0x174>)
 8001f9a:	01d2      	lsls	r2, r2, #7
 8001f9c:	6888      	ldr	r0, [r1, #8]
 8001f9e:	4302      	orrs	r2, r0
 8001fa0:	608a      	str	r2, [r1, #8]
 8001fa2:	4950      	ldr	r1, [pc, #320]	; (80020e4 <HAL_RCC_ClockConfig+0x174>)
 8001fa4:	4850      	ldr	r0, [pc, #320]	; (80020e8 <HAL_RCC_ClockConfig+0x178>)
 8001fa6:	688a      	ldr	r2, [r1, #8]
 8001fa8:	4002      	ands	r2, r0
 8001faa:	68a8      	ldr	r0, [r5, #8]
 8001fac:	4302      	orrs	r2, r0
 8001fae:	608a      	str	r2, [r1, #8]
 8001fb0:	07db      	lsls	r3, r3, #31
 8001fb2:	d52b      	bpl.n	800200c <HAL_RCC_ClockConfig+0x9c>
 8001fb4:	686b      	ldr	r3, [r5, #4]
 8001fb6:	4a4b      	ldr	r2, [pc, #300]	; (80020e4 <HAL_RCC_ClockConfig+0x174>)
 8001fb8:	2b01      	cmp	r3, #1
 8001fba:	d100      	bne.n	8001fbe <HAL_RCC_ClockConfig+0x4e>
 8001fbc:	e07c      	b.n	80020b8 <HAL_RCC_ClockConfig+0x148>
 8001fbe:	2b02      	cmp	r3, #2
 8001fc0:	d007      	beq.n	8001fd2 <HAL_RCC_ClockConfig+0x62>
 8001fc2:	2b00      	cmp	r3, #0
 8001fc4:	d000      	beq.n	8001fc8 <HAL_RCC_ClockConfig+0x58>
 8001fc6:	e07d      	b.n	80020c4 <HAL_RCC_ClockConfig+0x154>
 8001fc8:	6812      	ldr	r2, [r2, #0]
 8001fca:	0552      	lsls	r2, r2, #21
 8001fcc:	d404      	bmi.n	8001fd8 <HAL_RCC_ClockConfig+0x68>
 8001fce:	2001      	movs	r0, #1
 8001fd0:	e037      	b.n	8002042 <HAL_RCC_ClockConfig+0xd2>
 8001fd2:	6812      	ldr	r2, [r2, #0]
 8001fd4:	0192      	lsls	r2, r2, #6
 8001fd6:	d5fa      	bpl.n	8001fce <HAL_RCC_ClockConfig+0x5e>
 8001fd8:	2107      	movs	r1, #7
 8001fda:	4e42      	ldr	r6, [pc, #264]	; (80020e4 <HAL_RCC_ClockConfig+0x174>)
 8001fdc:	68b2      	ldr	r2, [r6, #8]
 8001fde:	438a      	bics	r2, r1
 8001fe0:	4313      	orrs	r3, r2
 8001fe2:	60b3      	str	r3, [r6, #8]
 8001fe4:	f7fe fe88 	bl	8000cf8 <HAL_GetTick>
 8001fe8:	2338      	movs	r3, #56	; 0x38
 8001fea:	4698      	mov	r8, r3
 8001fec:	4b3f      	ldr	r3, [pc, #252]	; (80020ec <HAL_RCC_ClockConfig+0x17c>)
 8001fee:	0007      	movs	r7, r0
 8001ff0:	4699      	mov	r9, r3
 8001ff2:	e004      	b.n	8001ffe <HAL_RCC_ClockConfig+0x8e>
 8001ff4:	f7fe fe80 	bl	8000cf8 <HAL_GetTick>
 8001ff8:	1bc0      	subs	r0, r0, r7
 8001ffa:	4548      	cmp	r0, r9
 8001ffc:	d83b      	bhi.n	8002076 <HAL_RCC_ClockConfig+0x106>
 8001ffe:	4643      	mov	r3, r8
 8002000:	68b2      	ldr	r2, [r6, #8]
 8002002:	401a      	ands	r2, r3
 8002004:	686b      	ldr	r3, [r5, #4]
 8002006:	00db      	lsls	r3, r3, #3
 8002008:	429a      	cmp	r2, r3
 800200a:	d1f3      	bne.n	8001ff4 <HAL_RCC_ClockConfig+0x84>
 800200c:	2207      	movs	r2, #7
 800200e:	4e34      	ldr	r6, [pc, #208]	; (80020e0 <HAL_RCC_ClockConfig+0x170>)
 8002010:	6833      	ldr	r3, [r6, #0]
 8002012:	4013      	ands	r3, r2
 8002014:	42a3      	cmp	r3, r4
 8002016:	d838      	bhi.n	800208a <HAL_RCC_ClockConfig+0x11a>
 8002018:	682b      	ldr	r3, [r5, #0]
 800201a:	075b      	lsls	r3, r3, #29
 800201c:	d42d      	bmi.n	800207a <HAL_RCC_ClockConfig+0x10a>
 800201e:	f7ff ff5f 	bl	8001ee0 <HAL_RCC_GetSysClockFreq>
 8002022:	4b30      	ldr	r3, [pc, #192]	; (80020e4 <HAL_RCC_ClockConfig+0x174>)
 8002024:	4a32      	ldr	r2, [pc, #200]	; (80020f0 <HAL_RCC_ClockConfig+0x180>)
 8002026:	689b      	ldr	r3, [r3, #8]
 8002028:	051b      	lsls	r3, r3, #20
 800202a:	0f1b      	lsrs	r3, r3, #28
 800202c:	009b      	lsls	r3, r3, #2
 800202e:	589b      	ldr	r3, [r3, r2]
 8002030:	221f      	movs	r2, #31
 8002032:	4013      	ands	r3, r2
 8002034:	40d8      	lsrs	r0, r3
 8002036:	4b2f      	ldr	r3, [pc, #188]	; (80020f4 <HAL_RCC_ClockConfig+0x184>)
 8002038:	6018      	str	r0, [r3, #0]
 800203a:	4b2f      	ldr	r3, [pc, #188]	; (80020f8 <HAL_RCC_ClockConfig+0x188>)
 800203c:	6818      	ldr	r0, [r3, #0]
 800203e:	f7fe fe15 	bl	8000c6c <HAL_InitTick>
 8002042:	bcc0      	pop	{r6, r7}
 8002044:	46b9      	mov	r9, r7
 8002046:	46b0      	mov	r8, r6
 8002048:	bdf8      	pop	{r3, r4, r5, r6, r7, pc}
 800204a:	6833      	ldr	r3, [r6, #0]
 800204c:	4393      	bics	r3, r2
 800204e:	430b      	orrs	r3, r1
 8002050:	6033      	str	r3, [r6, #0]
 8002052:	f7fe fe51 	bl	8000cf8 <HAL_GetTick>
 8002056:	2307      	movs	r3, #7
 8002058:	4698      	mov	r8, r3
 800205a:	4b24      	ldr	r3, [pc, #144]	; (80020ec <HAL_RCC_ClockConfig+0x17c>)
 800205c:	0007      	movs	r7, r0
 800205e:	4699      	mov	r9, r3
 8002060:	4642      	mov	r2, r8
 8002062:	6833      	ldr	r3, [r6, #0]
 8002064:	4013      	ands	r3, r2
 8002066:	42a3      	cmp	r3, r4
 8002068:	d100      	bne.n	800206c <HAL_RCC_ClockConfig+0xfc>
 800206a:	e78f      	b.n	8001f8c <HAL_RCC_ClockConfig+0x1c>
 800206c:	f7fe fe44 	bl	8000cf8 <HAL_GetTick>
 8002070:	1bc0      	subs	r0, r0, r7
 8002072:	4548      	cmp	r0, r9
 8002074:	d9f4      	bls.n	8002060 <HAL_RCC_ClockConfig+0xf0>
 8002076:	2003      	movs	r0, #3
 8002078:	e7e3      	b.n	8002042 <HAL_RCC_ClockConfig+0xd2>
 800207a:	4a1a      	ldr	r2, [pc, #104]	; (80020e4 <HAL_RCC_ClockConfig+0x174>)
 800207c:	491f      	ldr	r1, [pc, #124]	; (80020fc <HAL_RCC_ClockConfig+0x18c>)
 800207e:	6893      	ldr	r3, [r2, #8]
 8002080:	400b      	ands	r3, r1
 8002082:	68e9      	ldr	r1, [r5, #12]
 8002084:	430b      	orrs	r3, r1
 8002086:	6093      	str	r3, [r2, #8]
 8002088:	e7c9      	b.n	800201e <HAL_RCC_ClockConfig+0xae>
 800208a:	6833      	ldr	r3, [r6, #0]
 800208c:	4393      	bics	r3, r2
 800208e:	4323      	orrs	r3, r4
 8002090:	6033      	str	r3, [r6, #0]
 8002092:	f7fe fe31 	bl	8000cf8 <HAL_GetTick>
 8002096:	2307      	movs	r3, #7
 8002098:	4698      	mov	r8, r3
 800209a:	4b14      	ldr	r3, [pc, #80]	; (80020ec <HAL_RCC_ClockConfig+0x17c>)
 800209c:	0007      	movs	r7, r0
 800209e:	4699      	mov	r9, r3
 80020a0:	4642      	mov	r2, r8
 80020a2:	6833      	ldr	r3, [r6, #0]
 80020a4:	4013      	ands	r3, r2
 80020a6:	42a3      	cmp	r3, r4
 80020a8:	d0b6      	beq.n	8002018 <HAL_RCC_ClockConfig+0xa8>
 80020aa:	f7fe fe25 	bl	8000cf8 <HAL_GetTick>
 80020ae:	1bc0      	subs	r0, r0, r7
 80020b0:	4548      	cmp	r0, r9
 80020b2:	d9f5      	bls.n	80020a0 <HAL_RCC_ClockConfig+0x130>
 80020b4:	2003      	movs	r0, #3
 80020b6:	e7c4      	b.n	8002042 <HAL_RCC_ClockConfig+0xd2>
 80020b8:	6812      	ldr	r2, [r2, #0]
 80020ba:	0392      	lsls	r2, r2, #14
 80020bc:	d500      	bpl.n	80020c0 <HAL_RCC_ClockConfig+0x150>
 80020be:	e78b      	b.n	8001fd8 <HAL_RCC_ClockConfig+0x68>
 80020c0:	2001      	movs	r0, #1
 80020c2:	e7be      	b.n	8002042 <HAL_RCC_ClockConfig+0xd2>
 80020c4:	2b03      	cmp	r3, #3
 80020c6:	d005      	beq.n	80020d4 <HAL_RCC_ClockConfig+0x164>
 80020c8:	6dd2      	ldr	r2, [r2, #92]	; 0x5c
 80020ca:	0792      	lsls	r2, r2, #30
 80020cc:	d500      	bpl.n	80020d0 <HAL_RCC_ClockConfig+0x160>
 80020ce:	e783      	b.n	8001fd8 <HAL_RCC_ClockConfig+0x68>
 80020d0:	2001      	movs	r0, #1
 80020d2:	e7b6      	b.n	8002042 <HAL_RCC_ClockConfig+0xd2>
 80020d4:	6e12      	ldr	r2, [r2, #96]	; 0x60
 80020d6:	0792      	lsls	r2, r2, #30
 80020d8:	d500      	bpl.n	80020dc <HAL_RCC_ClockConfig+0x16c>
 80020da:	e77d      	b.n	8001fd8 <HAL_RCC_ClockConfig+0x68>
 80020dc:	2001      	movs	r0, #1
 80020de:	e7b0      	b.n	8002042 <HAL_RCC_ClockConfig+0xd2>
 80020e0:	40022000 	.word	0x40022000
 80020e4:	40021000 	.word	0x40021000
 80020e8:	fffff0ff 	.word	0xfffff0ff
 80020ec:	00001388 	.word	0x00001388
 80020f0:	08002a44 	.word	0x08002a44
 80020f4:	20000000 	.word	0x20000000
 80020f8:	20000008 	.word	0x20000008
 80020fc:	ffff8fff 	.word	0xffff8fff

08002100 <HAL_RCC_GetPCLK1Freq>:
 8002100:	4b06      	ldr	r3, [pc, #24]	; (800211c <HAL_RCC_GetPCLK1Freq+0x1c>)
 8002102:	4a07      	ldr	r2, [pc, #28]	; (8002120 <HAL_RCC_GetPCLK1Freq+0x20>)
 8002104:	689b      	ldr	r3, [r3, #8]
 8002106:	045b      	lsls	r3, r3, #17
 8002108:	0f5b      	lsrs	r3, r3, #29
 800210a:	009b      	lsls	r3, r3, #2
 800210c:	589b      	ldr	r3, [r3, r2]
 800210e:	221f      	movs	r2, #31
 8002110:	4013      	ands	r3, r2
 8002112:	4a04      	ldr	r2, [pc, #16]	; (8002124 <HAL_RCC_GetPCLK1Freq+0x24>)
 8002114:	6810      	ldr	r0, [r2, #0]
 8002116:	40d8      	lsrs	r0, r3
 8002118:	4770      	bx	lr
 800211a:	46c0      	nop			; (mov r8, r8)
 800211c:	40021000 	.word	0x40021000
 8002120:	08002a84 	.word	0x08002a84
 8002124:	20000000 	.word	0x20000000

08002128 <HAL_RCCEx_PeriphCLKConfig>:
 8002128:	b5f0      	push	{r4, r5, r6, r7, lr}
 800212a:	46ce      	mov	lr, r9
 800212c:	4647      	mov	r7, r8
 800212e:	b580      	push	{r7, lr}
 8002130:	6803      	ldr	r3, [r0, #0]
 8002132:	0004      	movs	r4, r0
 8002134:	b083      	sub	sp, #12
 8002136:	2000      	movs	r0, #0
 8002138:	039a      	lsls	r2, r3, #14
 800213a:	d552      	bpl.n	80021e2 <HAL_RCCEx_PeriphCLKConfig+0xba>
 800213c:	2280      	movs	r2, #128	; 0x80
 800213e:	4b7c      	ldr	r3, [pc, #496]	; (8002330 <HAL_RCCEx_PeriphCLKConfig+0x208>)
 8002140:	0552      	lsls	r2, r2, #21
 8002142:	6bd9      	ldr	r1, [r3, #60]	; 0x3c
 8002144:	4680      	mov	r8, r0
 8002146:	4211      	tst	r1, r2
 8002148:	d100      	bne.n	800214c <HAL_RCCEx_PeriphCLKConfig+0x24>
 800214a:	e0c2      	b.n	80022d2 <HAL_RCCEx_PeriphCLKConfig+0x1aa>
 800214c:	2780      	movs	r7, #128	; 0x80
 800214e:	4d79      	ldr	r5, [pc, #484]	; (8002334 <HAL_RCCEx_PeriphCLKConfig+0x20c>)
 8002150:	007f      	lsls	r7, r7, #1
 8002152:	682b      	ldr	r3, [r5, #0]
 8002154:	433b      	orrs	r3, r7
 8002156:	602b      	str	r3, [r5, #0]
 8002158:	f7fe fdce 	bl	8000cf8 <HAL_GetTick>
 800215c:	0006      	movs	r6, r0
 800215e:	e005      	b.n	800216c <HAL_RCCEx_PeriphCLKConfig+0x44>
 8002160:	f7fe fdca 	bl	8000cf8 <HAL_GetTick>
 8002164:	1b80      	subs	r0, r0, r6
 8002166:	2802      	cmp	r0, #2
 8002168:	d900      	bls.n	800216c <HAL_RCCEx_PeriphCLKConfig+0x44>
 800216a:	e0bc      	b.n	80022e6 <HAL_RCCEx_PeriphCLKConfig+0x1be>
 800216c:	682b      	ldr	r3, [r5, #0]
 800216e:	423b      	tst	r3, r7
 8002170:	d0f6      	beq.n	8002160 <HAL_RCCEx_PeriphCLKConfig+0x38>
 8002172:	4d6f      	ldr	r5, [pc, #444]	; (8002330 <HAL_RCCEx_PeriphCLKConfig+0x208>)
 8002174:	23c0      	movs	r3, #192	; 0xc0
 8002176:	6dea      	ldr	r2, [r5, #92]	; 0x5c
 8002178:	009b      	lsls	r3, r3, #2
 800217a:	0011      	movs	r1, r2
 800217c:	4019      	ands	r1, r3
 800217e:	421a      	tst	r2, r3
 8002180:	d022      	beq.n	80021c8 <HAL_RCCEx_PeriphCLKConfig+0xa0>
 8002182:	6b20      	ldr	r0, [r4, #48]	; 0x30
 8002184:	4288      	cmp	r0, r1
 8002186:	d020      	beq.n	80021ca <HAL_RCCEx_PeriphCLKConfig+0xa2>
 8002188:	2280      	movs	r2, #128	; 0x80
 800218a:	6de9      	ldr	r1, [r5, #92]	; 0x5c
 800218c:	6dee      	ldr	r6, [r5, #92]	; 0x5c
 800218e:	0252      	lsls	r2, r2, #9
 8002190:	4332      	orrs	r2, r6
 8002192:	65ea      	str	r2, [r5, #92]	; 0x5c
 8002194:	6dea      	ldr	r2, [r5, #92]	; 0x5c
 8002196:	4b68      	ldr	r3, [pc, #416]	; (8002338 <HAL_RCCEx_PeriphCLKConfig+0x210>)
 8002198:	4e68      	ldr	r6, [pc, #416]	; (800233c <HAL_RCCEx_PeriphCLKConfig+0x214>)
 800219a:	400b      	ands	r3, r1
 800219c:	4032      	ands	r2, r6
 800219e:	65ea      	str	r2, [r5, #92]	; 0x5c
 80021a0:	65eb      	str	r3, [r5, #92]	; 0x5c
 80021a2:	07cb      	lsls	r3, r1, #31
 80021a4:	d400      	bmi.n	80021a8 <HAL_RCCEx_PeriphCLKConfig+0x80>
 80021a6:	e0c0      	b.n	800232a <HAL_RCCEx_PeriphCLKConfig+0x202>
 80021a8:	f7fe fda6 	bl	8000cf8 <HAL_GetTick>
 80021ac:	4b64      	ldr	r3, [pc, #400]	; (8002340 <HAL_RCCEx_PeriphCLKConfig+0x218>)
 80021ae:	0006      	movs	r6, r0
 80021b0:	2702      	movs	r7, #2
 80021b2:	4699      	mov	r9, r3
 80021b4:	e005      	b.n	80021c2 <HAL_RCCEx_PeriphCLKConfig+0x9a>
 80021b6:	f7fe fd9f 	bl	8000cf8 <HAL_GetTick>
 80021ba:	1b80      	subs	r0, r0, r6
 80021bc:	4548      	cmp	r0, r9
 80021be:	d900      	bls.n	80021c2 <HAL_RCCEx_PeriphCLKConfig+0x9a>
 80021c0:	e091      	b.n	80022e6 <HAL_RCCEx_PeriphCLKConfig+0x1be>
 80021c2:	6deb      	ldr	r3, [r5, #92]	; 0x5c
 80021c4:	421f      	tst	r7, r3
 80021c6:	d0f6      	beq.n	80021b6 <HAL_RCCEx_PeriphCLKConfig+0x8e>
 80021c8:	6b21      	ldr	r1, [r4, #48]	; 0x30
 80021ca:	4a59      	ldr	r2, [pc, #356]	; (8002330 <HAL_RCCEx_PeriphCLKConfig+0x208>)
 80021cc:	485a      	ldr	r0, [pc, #360]	; (8002338 <HAL_RCCEx_PeriphCLKConfig+0x210>)
 80021ce:	6dd3      	ldr	r3, [r2, #92]	; 0x5c
 80021d0:	4003      	ands	r3, r0
 80021d2:	430b      	orrs	r3, r1
 80021d4:	65d3      	str	r3, [r2, #92]	; 0x5c
 80021d6:	4643      	mov	r3, r8
 80021d8:	2000      	movs	r0, #0
 80021da:	2b01      	cmp	r3, #1
 80021dc:	d100      	bne.n	80021e0 <HAL_RCCEx_PeriphCLKConfig+0xb8>
 80021de:	e087      	b.n	80022f0 <HAL_RCCEx_PeriphCLKConfig+0x1c8>
 80021e0:	6823      	ldr	r3, [r4, #0]
 80021e2:	07da      	lsls	r2, r3, #31
 80021e4:	d506      	bpl.n	80021f4 <HAL_RCCEx_PeriphCLKConfig+0xcc>
 80021e6:	2503      	movs	r5, #3
 80021e8:	4951      	ldr	r1, [pc, #324]	; (8002330 <HAL_RCCEx_PeriphCLKConfig+0x208>)
 80021ea:	6d4a      	ldr	r2, [r1, #84]	; 0x54
 80021ec:	43aa      	bics	r2, r5
 80021ee:	6865      	ldr	r5, [r4, #4]
 80021f0:	432a      	orrs	r2, r5
 80021f2:	654a      	str	r2, [r1, #84]	; 0x54
 80021f4:	079a      	lsls	r2, r3, #30
 80021f6:	d506      	bpl.n	8002206 <HAL_RCCEx_PeriphCLKConfig+0xde>
 80021f8:	250c      	movs	r5, #12
 80021fa:	494d      	ldr	r1, [pc, #308]	; (8002330 <HAL_RCCEx_PeriphCLKConfig+0x208>)
 80021fc:	6d4a      	ldr	r2, [r1, #84]	; 0x54
 80021fe:	43aa      	bics	r2, r5
 8002200:	68a5      	ldr	r5, [r4, #8]
 8002202:	432a      	orrs	r2, r5
 8002204:	654a      	str	r2, [r1, #84]	; 0x54
 8002206:	06da      	lsls	r2, r3, #27
 8002208:	d506      	bpl.n	8002218 <HAL_RCCEx_PeriphCLKConfig+0xf0>
 800220a:	4949      	ldr	r1, [pc, #292]	; (8002330 <HAL_RCCEx_PeriphCLKConfig+0x208>)
 800220c:	4d4d      	ldr	r5, [pc, #308]	; (8002344 <HAL_RCCEx_PeriphCLKConfig+0x21c>)
 800220e:	6d4a      	ldr	r2, [r1, #84]	; 0x54
 8002210:	402a      	ands	r2, r5
 8002212:	68e5      	ldr	r5, [r4, #12]
 8002214:	432a      	orrs	r2, r5
 8002216:	654a      	str	r2, [r1, #84]	; 0x54
 8002218:	059a      	lsls	r2, r3, #22
 800221a:	d506      	bpl.n	800222a <HAL_RCCEx_PeriphCLKConfig+0x102>
 800221c:	4944      	ldr	r1, [pc, #272]	; (8002330 <HAL_RCCEx_PeriphCLKConfig+0x208>)
 800221e:	4d4a      	ldr	r5, [pc, #296]	; (8002348 <HAL_RCCEx_PeriphCLKConfig+0x220>)
 8002220:	6d4a      	ldr	r2, [r1, #84]	; 0x54
 8002222:	402a      	ands	r2, r5
 8002224:	69a5      	ldr	r5, [r4, #24]
 8002226:	432a      	orrs	r2, r5
 8002228:	654a      	str	r2, [r1, #84]	; 0x54
 800222a:	055a      	lsls	r2, r3, #21
 800222c:	d506      	bpl.n	800223c <HAL_RCCEx_PeriphCLKConfig+0x114>
 800222e:	4940      	ldr	r1, [pc, #256]	; (8002330 <HAL_RCCEx_PeriphCLKConfig+0x208>)
 8002230:	4d46      	ldr	r5, [pc, #280]	; (800234c <HAL_RCCEx_PeriphCLKConfig+0x224>)
 8002232:	6d4a      	ldr	r2, [r1, #84]	; 0x54
 8002234:	402a      	ands	r2, r5
 8002236:	69e5      	ldr	r5, [r4, #28]
 8002238:	432a      	orrs	r2, r5
 800223a:	654a      	str	r2, [r1, #84]	; 0x54
 800223c:	069a      	lsls	r2, r3, #26
 800223e:	d506      	bpl.n	800224e <HAL_RCCEx_PeriphCLKConfig+0x126>
 8002240:	493b      	ldr	r1, [pc, #236]	; (8002330 <HAL_RCCEx_PeriphCLKConfig+0x208>)
 8002242:	4d43      	ldr	r5, [pc, #268]	; (8002350 <HAL_RCCEx_PeriphCLKConfig+0x228>)
 8002244:	6d4a      	ldr	r2, [r1, #84]	; 0x54
 8002246:	402a      	ands	r2, r5
 8002248:	6925      	ldr	r5, [r4, #16]
 800224a:	432a      	orrs	r2, r5
 800224c:	654a      	str	r2, [r1, #84]	; 0x54
 800224e:	045a      	lsls	r2, r3, #17
 8002250:	d50a      	bpl.n	8002268 <HAL_RCCEx_PeriphCLKConfig+0x140>
 8002252:	4937      	ldr	r1, [pc, #220]	; (8002330 <HAL_RCCEx_PeriphCLKConfig+0x208>)
 8002254:	6a25      	ldr	r5, [r4, #32]
 8002256:	6d4a      	ldr	r2, [r1, #84]	; 0x54
 8002258:	0092      	lsls	r2, r2, #2
 800225a:	0892      	lsrs	r2, r2, #2
 800225c:	432a      	orrs	r2, r5
 800225e:	654a      	str	r2, [r1, #84]	; 0x54
 8002260:	2280      	movs	r2, #128	; 0x80
 8002262:	05d2      	lsls	r2, r2, #23
 8002264:	4295      	cmp	r5, r2
 8002266:	d04a      	beq.n	80022fe <HAL_RCCEx_PeriphCLKConfig+0x1d6>
 8002268:	031a      	lsls	r2, r3, #12
 800226a:	d506      	bpl.n	800227a <HAL_RCCEx_PeriphCLKConfig+0x152>
 800226c:	2540      	movs	r5, #64	; 0x40
 800226e:	4930      	ldr	r1, [pc, #192]	; (8002330 <HAL_RCCEx_PeriphCLKConfig+0x208>)
 8002270:	6d4a      	ldr	r2, [r1, #84]	; 0x54
 8002272:	43aa      	bics	r2, r5
 8002274:	6a65      	ldr	r5, [r4, #36]	; 0x24
 8002276:	432a      	orrs	r2, r5
 8002278:	654a      	str	r2, [r1, #84]	; 0x54
 800227a:	029a      	lsls	r2, r3, #10
 800227c:	d50a      	bpl.n	8002294 <HAL_RCCEx_PeriphCLKConfig+0x16c>
 800227e:	492c      	ldr	r1, [pc, #176]	; (8002330 <HAL_RCCEx_PeriphCLKConfig+0x208>)
 8002280:	4e34      	ldr	r6, [pc, #208]	; (8002354 <HAL_RCCEx_PeriphCLKConfig+0x22c>)
 8002282:	6d4a      	ldr	r2, [r1, #84]	; 0x54
 8002284:	6aa5      	ldr	r5, [r4, #40]	; 0x28
 8002286:	4032      	ands	r2, r6
 8002288:	432a      	orrs	r2, r5
 800228a:	654a      	str	r2, [r1, #84]	; 0x54
 800228c:	2280      	movs	r2, #128	; 0x80
 800228e:	03d2      	lsls	r2, r2, #15
 8002290:	4295      	cmp	r5, r2
 8002292:	d03a      	beq.n	800230a <HAL_RCCEx_PeriphCLKConfig+0x1e2>
 8002294:	025a      	lsls	r2, r3, #9
 8002296:	d50a      	bpl.n	80022ae <HAL_RCCEx_PeriphCLKConfig+0x186>
 8002298:	4d25      	ldr	r5, [pc, #148]	; (8002330 <HAL_RCCEx_PeriphCLKConfig+0x208>)
 800229a:	4e2f      	ldr	r6, [pc, #188]	; (8002358 <HAL_RCCEx_PeriphCLKConfig+0x230>)
 800229c:	6d6a      	ldr	r2, [r5, #84]	; 0x54
 800229e:	6ae1      	ldr	r1, [r4, #44]	; 0x2c
 80022a0:	4032      	ands	r2, r6
 80022a2:	430a      	orrs	r2, r1
 80022a4:	656a      	str	r2, [r5, #84]	; 0x54
 80022a6:	2280      	movs	r2, #128	; 0x80
 80022a8:	0452      	lsls	r2, r2, #17
 80022aa:	4291      	cmp	r1, r2
 80022ac:	d033      	beq.n	8002316 <HAL_RCCEx_PeriphCLKConfig+0x1ee>
 80022ae:	051b      	lsls	r3, r3, #20
 80022b0:	d50a      	bpl.n	80022c8 <HAL_RCCEx_PeriphCLKConfig+0x1a0>
 80022b2:	4a1f      	ldr	r2, [pc, #124]	; (8002330 <HAL_RCCEx_PeriphCLKConfig+0x208>)
 80022b4:	6961      	ldr	r1, [r4, #20]
 80022b6:	6d53      	ldr	r3, [r2, #84]	; 0x54
 80022b8:	4c28      	ldr	r4, [pc, #160]	; (800235c <HAL_RCCEx_PeriphCLKConfig+0x234>)
 80022ba:	4023      	ands	r3, r4
 80022bc:	430b      	orrs	r3, r1
 80022be:	6553      	str	r3, [r2, #84]	; 0x54
 80022c0:	2380      	movs	r3, #128	; 0x80
 80022c2:	01db      	lsls	r3, r3, #7
 80022c4:	4299      	cmp	r1, r3
 80022c6:	d02a      	beq.n	800231e <HAL_RCCEx_PeriphCLKConfig+0x1f6>
 80022c8:	b003      	add	sp, #12
 80022ca:	bcc0      	pop	{r6, r7}
 80022cc:	46b9      	mov	r9, r7
 80022ce:	46b0      	mov	r8, r6
 80022d0:	bdf0      	pop	{r4, r5, r6, r7, pc}
 80022d2:	6bd9      	ldr	r1, [r3, #60]	; 0x3c
 80022d4:	4311      	orrs	r1, r2
 80022d6:	63d9      	str	r1, [r3, #60]	; 0x3c
 80022d8:	6bdb      	ldr	r3, [r3, #60]	; 0x3c
 80022da:	401a      	ands	r2, r3
 80022dc:	9201      	str	r2, [sp, #4]
 80022de:	9b01      	ldr	r3, [sp, #4]
 80022e0:	2301      	movs	r3, #1
 80022e2:	4698      	mov	r8, r3
 80022e4:	e732      	b.n	800214c <HAL_RCCEx_PeriphCLKConfig+0x24>
 80022e6:	4643      	mov	r3, r8
 80022e8:	2003      	movs	r0, #3
 80022ea:	2b01      	cmp	r3, #1
 80022ec:	d000      	beq.n	80022f0 <HAL_RCCEx_PeriphCLKConfig+0x1c8>
 80022ee:	e777      	b.n	80021e0 <HAL_RCCEx_PeriphCLKConfig+0xb8>
 80022f0:	4a0f      	ldr	r2, [pc, #60]	; (8002330 <HAL_RCCEx_PeriphCLKConfig+0x208>)
 80022f2:	491b      	ldr	r1, [pc, #108]	; (8002360 <HAL_RCCEx_PeriphCLKConfig+0x238>)
 80022f4:	6bd3      	ldr	r3, [r2, #60]	; 0x3c
 80022f6:	400b      	ands	r3, r1
 80022f8:	63d3      	str	r3, [r2, #60]	; 0x3c
 80022fa:	6823      	ldr	r3, [r4, #0]
 80022fc:	e771      	b.n	80021e2 <HAL_RCCEx_PeriphCLKConfig+0xba>
 80022fe:	2280      	movs	r2, #128	; 0x80
 8002300:	68cd      	ldr	r5, [r1, #12]
 8002302:	0252      	lsls	r2, r2, #9
 8002304:	432a      	orrs	r2, r5
 8002306:	60ca      	str	r2, [r1, #12]
 8002308:	e7ae      	b.n	8002268 <HAL_RCCEx_PeriphCLKConfig+0x140>
 800230a:	2280      	movs	r2, #128	; 0x80
 800230c:	68cd      	ldr	r5, [r1, #12]
 800230e:	0452      	lsls	r2, r2, #17
 8002310:	432a      	orrs	r2, r5
 8002312:	60ca      	str	r2, [r1, #12]
 8002314:	e7be      	b.n	8002294 <HAL_RCCEx_PeriphCLKConfig+0x16c>
 8002316:	68ea      	ldr	r2, [r5, #12]
 8002318:	4311      	orrs	r1, r2
 800231a:	60e9      	str	r1, [r5, #12]
 800231c:	e7c7      	b.n	80022ae <HAL_RCCEx_PeriphCLKConfig+0x186>
 800231e:	2380      	movs	r3, #128	; 0x80
 8002320:	68d1      	ldr	r1, [r2, #12]
 8002322:	025b      	lsls	r3, r3, #9
 8002324:	430b      	orrs	r3, r1
 8002326:	60d3      	str	r3, [r2, #12]
 8002328:	e7ce      	b.n	80022c8 <HAL_RCCEx_PeriphCLKConfig+0x1a0>
 800232a:	0001      	movs	r1, r0
 800232c:	e74d      	b.n	80021ca <HAL_RCCEx_PeriphCLKConfig+0xa2>
 800232e:	46c0      	nop			; (mov r8, r8)
 8002330:	40021000 	.word	0x40021000
 8002334:	40007000 	.word	0x40007000
 8002338:	fffffcff 	.word	0xfffffcff
 800233c:	fffeffff 	.word	0xfffeffff
 8002340:	00001388 	.word	0x00001388
 8002344:	fffff3ff 	.word	0xfffff3ff
 8002348:	fff3ffff 	.word	0xfff3ffff
 800234c:	ffcfffff 	.word	0xffcfffff
 8002350:	ffffcfff 	.word	0xffffcfff
 8002354:	ffbfffff 	.word	0xffbfffff
 8002358:	feffffff 	.word	0xfeffffff
 800235c:	ffff3fff 	.word	0xffff3fff
 8002360:	efffffff 	.word	0xefffffff

08002364 <UART_SetConfig>:
 8002364:	b5f8      	push	{r3, r4, r5, r6, r7, lr}
 8002366:	0004      	movs	r4, r0
 8002368:	6925      	ldr	r5, [r4, #16]
 800236a:	68a2      	ldr	r2, [r4, #8]
 800236c:	6803      	ldr	r3, [r0, #0]
 800236e:	432a      	orrs	r2, r5
 8002370:	6965      	ldr	r5, [r4, #20]
 8002372:	6819      	ldr	r1, [r3, #0]
 8002374:	69c0      	ldr	r0, [r0, #28]
 8002376:	432a      	orrs	r2, r5
 8002378:	4d7e      	ldr	r5, [pc, #504]	; (8002574 <UART_SetConfig+0x210>)
 800237a:	4302      	orrs	r2, r0
 800237c:	4029      	ands	r1, r5
 800237e:	430a      	orrs	r2, r1
 8002380:	601a      	str	r2, [r3, #0]
 8002382:	685a      	ldr	r2, [r3, #4]
 8002384:	497c      	ldr	r1, [pc, #496]	; (8002578 <UART_SetConfig+0x214>)
 8002386:	400a      	ands	r2, r1
 8002388:	68e1      	ldr	r1, [r4, #12]
 800238a:	430a      	orrs	r2, r1
 800238c:	497b      	ldr	r1, [pc, #492]	; (800257c <UART_SetConfig+0x218>)
 800238e:	605a      	str	r2, [r3, #4]
 8002390:	69a2      	ldr	r2, [r4, #24]
 8002392:	428b      	cmp	r3, r1
 8002394:	d05a      	beq.n	800244c <UART_SetConfig+0xe8>
 8002396:	6a25      	ldr	r5, [r4, #32]
 8002398:	6899      	ldr	r1, [r3, #8]
 800239a:	432a      	orrs	r2, r5
 800239c:	4d78      	ldr	r5, [pc, #480]	; (8002580 <UART_SetConfig+0x21c>)
 800239e:	4029      	ands	r1, r5
 80023a0:	250f      	movs	r5, #15
 80023a2:	430a      	orrs	r2, r1
 80023a4:	609a      	str	r2, [r3, #8]
 80023a6:	6ada      	ldr	r2, [r3, #44]	; 0x2c
 80023a8:	6a61      	ldr	r1, [r4, #36]	; 0x24
 80023aa:	43aa      	bics	r2, r5
 80023ac:	430a      	orrs	r2, r1
 80023ae:	62da      	str	r2, [r3, #44]	; 0x2c
 80023b0:	4a74      	ldr	r2, [pc, #464]	; (8002584 <UART_SetConfig+0x220>)
 80023b2:	4293      	cmp	r3, r2
 80023b4:	d00f      	beq.n	80023d6 <UART_SetConfig+0x72>
 80023b6:	4a74      	ldr	r2, [pc, #464]	; (8002588 <UART_SetConfig+0x224>)
 80023b8:	4293      	cmp	r3, r2
 80023ba:	d032      	beq.n	8002422 <UART_SetConfig+0xbe>
 80023bc:	4a73      	ldr	r2, [pc, #460]	; (800258c <UART_SetConfig+0x228>)
 80023be:	4293      	cmp	r3, r2
 80023c0:	d011      	beq.n	80023e6 <UART_SetConfig+0x82>
 80023c2:	4a73      	ldr	r2, [pc, #460]	; (8002590 <UART_SetConfig+0x22c>)
 80023c4:	4293      	cmp	r3, r2
 80023c6:	d00e      	beq.n	80023e6 <UART_SetConfig+0x82>
 80023c8:	2001      	movs	r0, #1
 80023ca:	4b72      	ldr	r3, [pc, #456]	; (8002594 <UART_SetConfig+0x230>)
 80023cc:	66a3      	str	r3, [r4, #104]	; 0x68
 80023ce:	2300      	movs	r3, #0
 80023d0:	6723      	str	r3, [r4, #112]	; 0x70
 80023d2:	6763      	str	r3, [r4, #116]	; 0x74
 80023d4:	bdf8      	pop	{r3, r4, r5, r6, r7, pc}
 80023d6:	4b70      	ldr	r3, [pc, #448]	; (8002598 <UART_SetConfig+0x234>)
 80023d8:	6d5a      	ldr	r2, [r3, #84]	; 0x54
 80023da:	2303      	movs	r3, #3
 80023dc:	4013      	ands	r3, r2
 80023de:	3b01      	subs	r3, #1
 80023e0:	2b02      	cmp	r3, #2
 80023e2:	d800      	bhi.n	80023e6 <UART_SetConfig+0x82>
 80023e4:	e07f      	b.n	80024e6 <UART_SetConfig+0x182>
 80023e6:	2380      	movs	r3, #128	; 0x80
 80023e8:	021b      	lsls	r3, r3, #8
 80023ea:	4298      	cmp	r0, r3
 80023ec:	d100      	bne.n	80023f0 <UART_SetConfig+0x8c>
 80023ee:	e0b6      	b.n	800255e <UART_SetConfig+0x1fa>
 80023f0:	f7ff fe86 	bl	8002100 <HAL_RCC_GetPCLK1Freq>
 80023f4:	2800      	cmp	r0, #0
 80023f6:	d012      	beq.n	800241e <UART_SetConfig+0xba>
 80023f8:	6a61      	ldr	r1, [r4, #36]	; 0x24
 80023fa:	4b68      	ldr	r3, [pc, #416]	; (800259c <UART_SetConfig+0x238>)
 80023fc:	0049      	lsls	r1, r1, #1
 80023fe:	5ac9      	ldrh	r1, [r1, r3]
 8002400:	f7fd fe80 	bl	8000104 <__udivsi3>
 8002404:	6865      	ldr	r5, [r4, #4]
 8002406:	086b      	lsrs	r3, r5, #1
 8002408:	18c0      	adds	r0, r0, r3
 800240a:	0029      	movs	r1, r5
 800240c:	f7fd fe7a 	bl	8000104 <__udivsi3>
 8002410:	0002      	movs	r2, r0
 8002412:	4b63      	ldr	r3, [pc, #396]	; (80025a0 <UART_SetConfig+0x23c>)
 8002414:	3a10      	subs	r2, #16
 8002416:	429a      	cmp	r2, r3
 8002418:	d8d6      	bhi.n	80023c8 <UART_SetConfig+0x64>
 800241a:	6823      	ldr	r3, [r4, #0]
 800241c:	60d8      	str	r0, [r3, #12]
 800241e:	2000      	movs	r0, #0
 8002420:	e7d3      	b.n	80023ca <UART_SetConfig+0x66>
 8002422:	4b5d      	ldr	r3, [pc, #372]	; (8002598 <UART_SetConfig+0x234>)
 8002424:	6d5a      	ldr	r2, [r3, #84]	; 0x54
 8002426:	230c      	movs	r3, #12
 8002428:	4013      	ands	r3, r2
 800242a:	4a5e      	ldr	r2, [pc, #376]	; (80025a4 <UART_SetConfig+0x240>)
 800242c:	5cd2      	ldrb	r2, [r2, r3]
 800242e:	2380      	movs	r3, #128	; 0x80
 8002430:	021b      	lsls	r3, r3, #8
 8002432:	4298      	cmp	r0, r3
 8002434:	d061      	beq.n	80024fa <UART_SetConfig+0x196>
 8002436:	2a04      	cmp	r2, #4
 8002438:	d100      	bne.n	800243c <UART_SetConfig+0xd8>
 800243a:	e08b      	b.n	8002554 <UART_SetConfig+0x1f0>
 800243c:	d900      	bls.n	8002440 <UART_SetConfig+0xdc>
 800243e:	e084      	b.n	800254a <UART_SetConfig+0x1e6>
 8002440:	2a00      	cmp	r2, #0
 8002442:	d0d5      	beq.n	80023f0 <UART_SetConfig+0x8c>
 8002444:	2a02      	cmp	r2, #2
 8002446:	d1bf      	bne.n	80023c8 <UART_SetConfig+0x64>
 8002448:	4857      	ldr	r0, [pc, #348]	; (80025a8 <UART_SetConfig+0x244>)
 800244a:	e7d6      	b.n	80023fa <UART_SetConfig+0x96>
 800244c:	6899      	ldr	r1, [r3, #8]
 800244e:	484c      	ldr	r0, [pc, #304]	; (8002580 <UART_SetConfig+0x21c>)
 8002450:	4001      	ands	r1, r0
 8002452:	200f      	movs	r0, #15
 8002454:	430a      	orrs	r2, r1
 8002456:	609a      	str	r2, [r3, #8]
 8002458:	6ada      	ldr	r2, [r3, #44]	; 0x2c
 800245a:	6a61      	ldr	r1, [r4, #36]	; 0x24
 800245c:	4382      	bics	r2, r0
 800245e:	430a      	orrs	r2, r1
 8002460:	62da      	str	r2, [r3, #44]	; 0x2c
 8002462:	22c0      	movs	r2, #192	; 0xc0
 8002464:	2080      	movs	r0, #128	; 0x80
 8002466:	4b4c      	ldr	r3, [pc, #304]	; (8002598 <UART_SetConfig+0x234>)
 8002468:	0112      	lsls	r2, r2, #4
 800246a:	6d5b      	ldr	r3, [r3, #84]	; 0x54
 800246c:	0100      	lsls	r0, r0, #4
 800246e:	4013      	ands	r3, r2
 8002470:	4283      	cmp	r3, r0
 8002472:	d072      	beq.n	800255a <UART_SetConfig+0x1f6>
 8002474:	d809      	bhi.n	800248a <UART_SetConfig+0x126>
 8002476:	2b00      	cmp	r3, #0
 8002478:	d038      	beq.n	80024ec <UART_SetConfig+0x188>
 800247a:	2280      	movs	r2, #128	; 0x80
 800247c:	00d2      	lsls	r2, r2, #3
 800247e:	4293      	cmp	r3, r2
 8002480:	d1a2      	bne.n	80023c8 <UART_SetConfig+0x64>
 8002482:	f7ff fd2d 	bl	8001ee0 <HAL_RCC_GetSysClockFreq>
 8002486:	0005      	movs	r5, r0
 8002488:	e033      	b.n	80024f2 <UART_SetConfig+0x18e>
 800248a:	4293      	cmp	r3, r2
 800248c:	d19c      	bne.n	80023c8 <UART_SetConfig+0x64>
 800248e:	2580      	movs	r5, #128	; 0x80
 8002490:	022d      	lsls	r5, r5, #8
 8002492:	4b42      	ldr	r3, [pc, #264]	; (800259c <UART_SetConfig+0x238>)
 8002494:	0049      	lsls	r1, r1, #1
 8002496:	5acf      	ldrh	r7, [r1, r3]
 8002498:	0028      	movs	r0, r5
 800249a:	0039      	movs	r1, r7
 800249c:	f7fd fe32 	bl	8000104 <__udivsi3>
 80024a0:	6866      	ldr	r6, [r4, #4]
 80024a2:	0073      	lsls	r3, r6, #1
 80024a4:	199b      	adds	r3, r3, r6
 80024a6:	4283      	cmp	r3, r0
 80024a8:	d900      	bls.n	80024ac <UART_SetConfig+0x148>
 80024aa:	e78d      	b.n	80023c8 <UART_SetConfig+0x64>
 80024ac:	0333      	lsls	r3, r6, #12
 80024ae:	4283      	cmp	r3, r0
 80024b0:	d200      	bcs.n	80024b4 <UART_SetConfig+0x150>
 80024b2:	e789      	b.n	80023c8 <UART_SetConfig+0x64>
 80024b4:	003a      	movs	r2, r7
 80024b6:	2300      	movs	r3, #0
 80024b8:	0028      	movs	r0, r5
 80024ba:	2100      	movs	r1, #0
 80024bc:	f7fd ff98 	bl	80003f0 <__aeabi_uldivmod>
 80024c0:	020b      	lsls	r3, r1, #8
 80024c2:	2100      	movs	r1, #0
 80024c4:	0e05      	lsrs	r5, r0, #24
 80024c6:	0202      	lsls	r2, r0, #8
 80024c8:	432b      	orrs	r3, r5
 80024ca:	0870      	lsrs	r0, r6, #1
 80024cc:	1880      	adds	r0, r0, r2
 80024ce:	4159      	adcs	r1, r3
 80024d0:	0032      	movs	r2, r6
 80024d2:	2300      	movs	r3, #0
 80024d4:	f7fd ff8c 	bl	80003f0 <__aeabi_uldivmod>
 80024d8:	4b34      	ldr	r3, [pc, #208]	; (80025ac <UART_SetConfig+0x248>)
 80024da:	18c2      	adds	r2, r0, r3
 80024dc:	4b34      	ldr	r3, [pc, #208]	; (80025b0 <UART_SetConfig+0x24c>)
 80024de:	429a      	cmp	r2, r3
 80024e0:	d900      	bls.n	80024e4 <UART_SetConfig+0x180>
 80024e2:	e771      	b.n	80023c8 <UART_SetConfig+0x64>
 80024e4:	e799      	b.n	800241a <UART_SetConfig+0xb6>
 80024e6:	4a33      	ldr	r2, [pc, #204]	; (80025b4 <UART_SetConfig+0x250>)
 80024e8:	5cd2      	ldrb	r2, [r2, r3]
 80024ea:	e7a0      	b.n	800242e <UART_SetConfig+0xca>
 80024ec:	f7ff fe08 	bl	8002100 <HAL_RCC_GetPCLK1Freq>
 80024f0:	0005      	movs	r5, r0
 80024f2:	2d00      	cmp	r5, #0
 80024f4:	d093      	beq.n	800241e <UART_SetConfig+0xba>
 80024f6:	6a61      	ldr	r1, [r4, #36]	; 0x24
 80024f8:	e7cb      	b.n	8002492 <UART_SetConfig+0x12e>
 80024fa:	2a04      	cmp	r2, #4
 80024fc:	d036      	beq.n	800256c <UART_SetConfig+0x208>
 80024fe:	d91d      	bls.n	800253c <UART_SetConfig+0x1d8>
 8002500:	2a08      	cmp	r2, #8
 8002502:	d000      	beq.n	8002506 <UART_SetConfig+0x1a2>
 8002504:	e760      	b.n	80023c8 <UART_SetConfig+0x64>
 8002506:	4b25      	ldr	r3, [pc, #148]	; (800259c <UART_SetConfig+0x238>)
 8002508:	0049      	lsls	r1, r1, #1
 800250a:	5ac9      	ldrh	r1, [r1, r3]
 800250c:	f7fd fdfa 	bl	8000104 <__udivsi3>
 8002510:	6865      	ldr	r5, [r4, #4]
 8002512:	0040      	lsls	r0, r0, #1
 8002514:	086b      	lsrs	r3, r5, #1
 8002516:	18c0      	adds	r0, r0, r3
 8002518:	0029      	movs	r1, r5
 800251a:	f7fd fdf3 	bl	8000104 <__udivsi3>
 800251e:	0002      	movs	r2, r0
 8002520:	4b1f      	ldr	r3, [pc, #124]	; (80025a0 <UART_SetConfig+0x23c>)
 8002522:	3a10      	subs	r2, #16
 8002524:	429a      	cmp	r2, r3
 8002526:	d900      	bls.n	800252a <UART_SetConfig+0x1c6>
 8002528:	e74e      	b.n	80023c8 <UART_SetConfig+0x64>
 800252a:	4b23      	ldr	r3, [pc, #140]	; (80025b8 <UART_SetConfig+0x254>)
 800252c:	6822      	ldr	r2, [r4, #0]
 800252e:	4003      	ands	r3, r0
 8002530:	0700      	lsls	r0, r0, #28
 8002532:	0f40      	lsrs	r0, r0, #29
 8002534:	4318      	orrs	r0, r3
 8002536:	60d0      	str	r0, [r2, #12]
 8002538:	2000      	movs	r0, #0
 800253a:	e746      	b.n	80023ca <UART_SetConfig+0x66>
 800253c:	2a00      	cmp	r2, #0
 800253e:	d00e      	beq.n	800255e <UART_SetConfig+0x1fa>
 8002540:	2a02      	cmp	r2, #2
 8002542:	d000      	beq.n	8002546 <UART_SetConfig+0x1e2>
 8002544:	e740      	b.n	80023c8 <UART_SetConfig+0x64>
 8002546:	4818      	ldr	r0, [pc, #96]	; (80025a8 <UART_SetConfig+0x244>)
 8002548:	e7dd      	b.n	8002506 <UART_SetConfig+0x1a2>
 800254a:	0018      	movs	r0, r3
 800254c:	2a08      	cmp	r2, #8
 800254e:	d100      	bne.n	8002552 <UART_SetConfig+0x1ee>
 8002550:	e753      	b.n	80023fa <UART_SetConfig+0x96>
 8002552:	e739      	b.n	80023c8 <UART_SetConfig+0x64>
 8002554:	f7ff fcc4 	bl	8001ee0 <HAL_RCC_GetSysClockFreq>
 8002558:	e74c      	b.n	80023f4 <UART_SetConfig+0x90>
 800255a:	4d13      	ldr	r5, [pc, #76]	; (80025a8 <UART_SetConfig+0x244>)
 800255c:	e799      	b.n	8002492 <UART_SetConfig+0x12e>
 800255e:	f7ff fdcf 	bl	8002100 <HAL_RCC_GetPCLK1Freq>
 8002562:	2800      	cmp	r0, #0
 8002564:	d100      	bne.n	8002568 <UART_SetConfig+0x204>
 8002566:	e75a      	b.n	800241e <UART_SetConfig+0xba>
 8002568:	6a61      	ldr	r1, [r4, #36]	; 0x24
 800256a:	e7cc      	b.n	8002506 <UART_SetConfig+0x1a2>
 800256c:	f7ff fcb8 	bl	8001ee0 <HAL_RCC_GetSysClockFreq>
 8002570:	e7f7      	b.n	8002562 <UART_SetConfig+0x1fe>
 8002572:	46c0      	nop			; (mov r8, r8)
 8002574:	cfff69f3 	.word	0xcfff69f3
 8002578:	ffffcfff 	.word	0xffffcfff
 800257c:	40008000 	.word	0x40008000
 8002580:	11fff4ff 	.word	0x11fff4ff
 8002584:	40013800 	.word	0x40013800
 8002588:	40004400 	.word	0x40004400
 800258c:	40004800 	.word	0x40004800
 8002590:	40004c00 	.word	0x40004c00
 8002594:	00010001 	.word	0x00010001
 8002598:	40021000 	.word	0x40021000
 800259c:	08002ab8 	.word	0x08002ab8
 80025a0:	0000ffef 	.word	0x0000ffef
 80025a4:	08002aa8 	.word	0x08002aa8
 80025a8:	00f42400 	.word	0x00f42400
 80025ac:	fffffd00 	.word	0xfffffd00
 80025b0:	000ffcff 	.word	0x000ffcff
 80025b4:	08002aa4 	.word	0x08002aa4
 80025b8:	0000fff0 	.word	0x0000fff0

080025bc <UART_AdvFeatureConfig>:
 80025bc:	6a83      	ldr	r3, [r0, #40]	; 0x28
 80025be:	b530      	push	{r4, r5, lr}
 80025c0:	07da      	lsls	r2, r3, #31
 80025c2:	d506      	bpl.n	80025d2 <UART_AdvFeatureConfig+0x16>
 80025c4:	6801      	ldr	r1, [r0, #0]
 80025c6:	4c28      	ldr	r4, [pc, #160]	; (8002668 <UART_AdvFeatureConfig+0xac>)
 80025c8:	684a      	ldr	r2, [r1, #4]
 80025ca:	4022      	ands	r2, r4
 80025cc:	6ac4      	ldr	r4, [r0, #44]	; 0x2c
 80025ce:	4322      	orrs	r2, r4
 80025d0:	604a      	str	r2, [r1, #4]
 80025d2:	079a      	lsls	r2, r3, #30
 80025d4:	d506      	bpl.n	80025e4 <UART_AdvFeatureConfig+0x28>
 80025d6:	6801      	ldr	r1, [r0, #0]
 80025d8:	4c24      	ldr	r4, [pc, #144]	; (800266c <UART_AdvFeatureConfig+0xb0>)
 80025da:	684a      	ldr	r2, [r1, #4]
 80025dc:	4022      	ands	r2, r4
 80025de:	6b04      	ldr	r4, [r0, #48]	; 0x30
 80025e0:	4322      	orrs	r2, r4
 80025e2:	604a      	str	r2, [r1, #4]
 80025e4:	075a      	lsls	r2, r3, #29
 80025e6:	d506      	bpl.n	80025f6 <UART_AdvFeatureConfig+0x3a>
 80025e8:	6801      	ldr	r1, [r0, #0]
 80025ea:	4c21      	ldr	r4, [pc, #132]	; (8002670 <UART_AdvFeatureConfig+0xb4>)
 80025ec:	684a      	ldr	r2, [r1, #4]
 80025ee:	4022      	ands	r2, r4
 80025f0:	6b44      	ldr	r4, [r0, #52]	; 0x34
 80025f2:	4322      	orrs	r2, r4
 80025f4:	604a      	str	r2, [r1, #4]
 80025f6:	071a      	lsls	r2, r3, #28
 80025f8:	d506      	bpl.n	8002608 <UART_AdvFeatureConfig+0x4c>
 80025fa:	6801      	ldr	r1, [r0, #0]
 80025fc:	4c1d      	ldr	r4, [pc, #116]	; (8002674 <UART_AdvFeatureConfig+0xb8>)
 80025fe:	684a      	ldr	r2, [r1, #4]
 8002600:	4022      	ands	r2, r4
 8002602:	6b84      	ldr	r4, [r0, #56]	; 0x38
 8002604:	4322      	orrs	r2, r4
 8002606:	604a      	str	r2, [r1, #4]
 8002608:	06da      	lsls	r2, r3, #27
 800260a:	d506      	bpl.n	800261a <UART_AdvFeatureConfig+0x5e>
 800260c:	6801      	ldr	r1, [r0, #0]
 800260e:	4c1a      	ldr	r4, [pc, #104]	; (8002678 <UART_AdvFeatureConfig+0xbc>)
 8002610:	688a      	ldr	r2, [r1, #8]
 8002612:	4022      	ands	r2, r4
 8002614:	6bc4      	ldr	r4, [r0, #60]	; 0x3c
 8002616:	4322      	orrs	r2, r4
 8002618:	608a      	str	r2, [r1, #8]
 800261a:	069a      	lsls	r2, r3, #26
 800261c:	d506      	bpl.n	800262c <UART_AdvFeatureConfig+0x70>
 800261e:	6801      	ldr	r1, [r0, #0]
 8002620:	4c16      	ldr	r4, [pc, #88]	; (800267c <UART_AdvFeatureConfig+0xc0>)
 8002622:	688a      	ldr	r2, [r1, #8]
 8002624:	4022      	ands	r2, r4
 8002626:	6c04      	ldr	r4, [r0, #64]	; 0x40
 8002628:	4322      	orrs	r2, r4
 800262a:	608a      	str	r2, [r1, #8]
 800262c:	065a      	lsls	r2, r3, #25
 800262e:	d50a      	bpl.n	8002646 <UART_AdvFeatureConfig+0x8a>
 8002630:	6801      	ldr	r1, [r0, #0]
 8002632:	4d13      	ldr	r5, [pc, #76]	; (8002680 <UART_AdvFeatureConfig+0xc4>)
 8002634:	684a      	ldr	r2, [r1, #4]
 8002636:	6c44      	ldr	r4, [r0, #68]	; 0x44
 8002638:	402a      	ands	r2, r5
 800263a:	4322      	orrs	r2, r4
 800263c:	604a      	str	r2, [r1, #4]
 800263e:	2280      	movs	r2, #128	; 0x80
 8002640:	0352      	lsls	r2, r2, #13
 8002642:	4294      	cmp	r4, r2
 8002644:	d009      	beq.n	800265a <UART_AdvFeatureConfig+0x9e>
 8002646:	061b      	lsls	r3, r3, #24
 8002648:	d506      	bpl.n	8002658 <UART_AdvFeatureConfig+0x9c>
 800264a:	6802      	ldr	r2, [r0, #0]
 800264c:	490d      	ldr	r1, [pc, #52]	; (8002684 <UART_AdvFeatureConfig+0xc8>)
 800264e:	6853      	ldr	r3, [r2, #4]
 8002650:	400b      	ands	r3, r1
 8002652:	6cc1      	ldr	r1, [r0, #76]	; 0x4c
 8002654:	430b      	orrs	r3, r1
 8002656:	6053      	str	r3, [r2, #4]
 8002658:	bd30      	pop	{r4, r5, pc}
 800265a:	684a      	ldr	r2, [r1, #4]
 800265c:	4c0a      	ldr	r4, [pc, #40]	; (8002688 <UART_AdvFeatureConfig+0xcc>)
 800265e:	4022      	ands	r2, r4
 8002660:	6c84      	ldr	r4, [r0, #72]	; 0x48
 8002662:	4322      	orrs	r2, r4
 8002664:	604a      	str	r2, [r1, #4]
 8002666:	e7ee      	b.n	8002646 <UART_AdvFeatureConfig+0x8a>
 8002668:	fffdffff 	.word	0xfffdffff
 800266c:	fffeffff 	.word	0xfffeffff
 8002670:	fffbffff 	.word	0xfffbffff
 8002674:	ffff7fff 	.word	0xffff7fff
 8002678:	ffffefff 	.word	0xffffefff
 800267c:	ffffdfff 	.word	0xffffdfff
 8002680:	ffefffff 	.word	0xffefffff
 8002684:	fff7ffff 	.word	0xfff7ffff
 8002688:	ff9fffff 	.word	0xff9fffff

0800268c <UART_WaitOnFlagUntilTimeout>:
 800268c:	b5f0      	push	{r4, r5, r6, r7, lr}
 800268e:	4646      	mov	r6, r8
 8002690:	4698      	mov	r8, r3
 8002692:	2304      	movs	r3, #4
 8002694:	464f      	mov	r7, r9
 8002696:	4699      	mov	r9, r3
 8002698:	2380      	movs	r3, #128	; 0x80
 800269a:	46d6      	mov	lr, sl
 800269c:	011b      	lsls	r3, r3, #4
 800269e:	b5c0      	push	{r6, r7, lr}
 80026a0:	0015      	movs	r5, r2
 80026a2:	0007      	movs	r7, r0
 80026a4:	469a      	mov	sl, r3
 80026a6:	000c      	movs	r4, r1
 80026a8:	9e08      	ldr	r6, [sp, #32]
 80026aa:	6801      	ldr	r1, [r0, #0]
 80026ac:	1c73      	adds	r3, r6, #1
 80026ae:	d10c      	bne.n	80026ca <UART_WaitOnFlagUntilTimeout+0x3e>
 80026b0:	69cb      	ldr	r3, [r1, #28]
 80026b2:	4023      	ands	r3, r4
 80026b4:	1b1b      	subs	r3, r3, r4
 80026b6:	425a      	negs	r2, r3
 80026b8:	4153      	adcs	r3, r2
 80026ba:	42ab      	cmp	r3, r5
 80026bc:	d0f8      	beq.n	80026b0 <UART_WaitOnFlagUntilTimeout+0x24>
 80026be:	2000      	movs	r0, #0
 80026c0:	bce0      	pop	{r5, r6, r7}
 80026c2:	46ba      	mov	sl, r7
 80026c4:	46b1      	mov	r9, r6
 80026c6:	46a8      	mov	r8, r5
 80026c8:	bdf0      	pop	{r4, r5, r6, r7, pc}
 80026ca:	69cb      	ldr	r3, [r1, #28]
 80026cc:	4023      	ands	r3, r4
 80026ce:	1b1b      	subs	r3, r3, r4
 80026d0:	425a      	negs	r2, r3
 80026d2:	4153      	adcs	r3, r2
 80026d4:	42ab      	cmp	r3, r5
 80026d6:	d1f2      	bne.n	80026be <UART_WaitOnFlagUntilTimeout+0x32>
 80026d8:	f7fe fb0e 	bl	8000cf8 <HAL_GetTick>
 80026dc:	4643      	mov	r3, r8
 80026de:	1ac0      	subs	r0, r0, r3
 80026e0:	42b0      	cmp	r0, r6
 80026e2:	d82d      	bhi.n	8002740 <UART_WaitOnFlagUntilTimeout+0xb4>
 80026e4:	2e00      	cmp	r6, #0
 80026e6:	d02b      	beq.n	8002740 <UART_WaitOnFlagUntilTimeout+0xb4>
 80026e8:	464a      	mov	r2, r9
 80026ea:	6839      	ldr	r1, [r7, #0]
 80026ec:	680b      	ldr	r3, [r1, #0]
 80026ee:	421a      	tst	r2, r3
 80026f0:	d0dc      	beq.n	80026ac <UART_WaitOnFlagUntilTimeout+0x20>
 80026f2:	4652      	mov	r2, sl
 80026f4:	69cb      	ldr	r3, [r1, #28]
 80026f6:	4213      	tst	r3, r2
 80026f8:	d0d8      	beq.n	80026ac <UART_WaitOnFlagUntilTimeout+0x20>
 80026fa:	620a      	str	r2, [r1, #32]
 80026fc:	f3ef 8010 	mrs	r0, PRIMASK
 8002700:	2201      	movs	r2, #1
 8002702:	f382 8810 	msr	PRIMASK, r2
 8002706:	6839      	ldr	r1, [r7, #0]
 8002708:	4c1a      	ldr	r4, [pc, #104]	; (8002774 <UART_WaitOnFlagUntilTimeout+0xe8>)
 800270a:	680b      	ldr	r3, [r1, #0]
 800270c:	4023      	ands	r3, r4
 800270e:	600b      	str	r3, [r1, #0]
 8002710:	f380 8810 	msr	PRIMASK, r0
 8002714:	f3ef 8010 	mrs	r0, PRIMASK
 8002718:	f382 8810 	msr	PRIMASK, r2
 800271c:	6839      	ldr	r1, [r7, #0]
 800271e:	688b      	ldr	r3, [r1, #8]
 8002720:	4393      	bics	r3, r2
 8002722:	608b      	str	r3, [r1, #8]
 8002724:	f380 8810 	msr	PRIMASK, r0
 8002728:	2320      	movs	r3, #32
 800272a:	3283      	adds	r2, #131	; 0x83
 800272c:	50bb      	str	r3, [r7, r2]
 800272e:	3204      	adds	r2, #4
 8002730:	50bb      	str	r3, [r7, r2]
 8002732:	3204      	adds	r2, #4
 8002734:	50bb      	str	r3, [r7, r2]
 8002736:	2200      	movs	r2, #0
 8002738:	3360      	adds	r3, #96	; 0x60
 800273a:	2003      	movs	r0, #3
 800273c:	54fa      	strb	r2, [r7, r3]
 800273e:	e7bf      	b.n	80026c0 <UART_WaitOnFlagUntilTimeout+0x34>
 8002740:	f3ef 8010 	mrs	r0, PRIMASK
 8002744:	2201      	movs	r2, #1
 8002746:	f382 8810 	msr	PRIMASK, r2
 800274a:	6839      	ldr	r1, [r7, #0]
 800274c:	4c09      	ldr	r4, [pc, #36]	; (8002774 <UART_WaitOnFlagUntilTimeout+0xe8>)
 800274e:	680b      	ldr	r3, [r1, #0]
 8002750:	4023      	ands	r3, r4
 8002752:	600b      	str	r3, [r1, #0]
 8002754:	f380 8810 	msr	PRIMASK, r0
 8002758:	f3ef 8010 	mrs	r0, PRIMASK
 800275c:	f382 8810 	msr	PRIMASK, r2
 8002760:	6839      	ldr	r1, [r7, #0]
 8002762:	688b      	ldr	r3, [r1, #8]
 8002764:	4393      	bics	r3, r2
 8002766:	608b      	str	r3, [r1, #8]
 8002768:	f380 8810 	msr	PRIMASK, r0
 800276c:	2320      	movs	r3, #32
 800276e:	3283      	adds	r2, #131	; 0x83
 8002770:	e7de      	b.n	8002730 <UART_WaitOnFlagUntilTimeout+0xa4>
 8002772:	46c0      	nop			; (mov r8, r8)
 8002774:	fffffe5f 	.word	0xfffffe5f

08002778 <HAL_UART_Init>:
 8002778:	b530      	push	{r4, r5, lr}
 800277a:	0004      	movs	r4, r0
 800277c:	b083      	sub	sp, #12
 800277e:	2800      	cmp	r0, #0
 8002780:	d04d      	beq.n	800281e <HAL_UART_Init+0xa6>
 8002782:	2384      	movs	r3, #132	; 0x84
 8002784:	58c3      	ldr	r3, [r0, r3]
 8002786:	2b00      	cmp	r3, #0
 8002788:	d04b      	beq.n	8002822 <HAL_UART_Init+0xaa>
 800278a:	2384      	movs	r3, #132	; 0x84
 800278c:	2224      	movs	r2, #36	; 0x24
 800278e:	2101      	movs	r1, #1
 8002790:	50e2      	str	r2, [r4, r3]
 8002792:	6822      	ldr	r2, [r4, #0]
 8002794:	0020      	movs	r0, r4
 8002796:	6813      	ldr	r3, [r2, #0]
 8002798:	438b      	bics	r3, r1
 800279a:	6013      	str	r3, [r2, #0]
 800279c:	f7ff fde2 	bl	8002364 <UART_SetConfig>
 80027a0:	2801      	cmp	r0, #1
 80027a2:	d03c      	beq.n	800281e <HAL_UART_Init+0xa6>
 80027a4:	6aa3      	ldr	r3, [r4, #40]	; 0x28
 80027a6:	2b00      	cmp	r3, #0
 80027a8:	d135      	bne.n	8002816 <HAL_UART_Init+0x9e>
 80027aa:	6823      	ldr	r3, [r4, #0]
 80027ac:	4926      	ldr	r1, [pc, #152]	; (8002848 <HAL_UART_Init+0xd0>)
 80027ae:	685a      	ldr	r2, [r3, #4]
 80027b0:	400a      	ands	r2, r1
 80027b2:	212a      	movs	r1, #42	; 0x2a
 80027b4:	605a      	str	r2, [r3, #4]
 80027b6:	689a      	ldr	r2, [r3, #8]
 80027b8:	438a      	bics	r2, r1
 80027ba:	609a      	str	r2, [r3, #8]
 80027bc:	681a      	ldr	r2, [r3, #0]
 80027be:	3929      	subs	r1, #41	; 0x29
 80027c0:	430a      	orrs	r2, r1
 80027c2:	601a      	str	r2, [r3, #0]
 80027c4:	238c      	movs	r3, #140	; 0x8c
 80027c6:	2200      	movs	r2, #0
 80027c8:	50e2      	str	r2, [r4, r3]
 80027ca:	f7fe fa95 	bl	8000cf8 <HAL_GetTick>
 80027ce:	6823      	ldr	r3, [r4, #0]
 80027d0:	0005      	movs	r5, r0
 80027d2:	681a      	ldr	r2, [r3, #0]
 80027d4:	0712      	lsls	r2, r2, #28
 80027d6:	d40e      	bmi.n	80027f6 <HAL_UART_Init+0x7e>
 80027d8:	681b      	ldr	r3, [r3, #0]
 80027da:	075b      	lsls	r3, r3, #29
 80027dc:	d426      	bmi.n	800282c <HAL_UART_Init+0xb4>
 80027de:	2320      	movs	r3, #32
 80027e0:	2284      	movs	r2, #132	; 0x84
 80027e2:	50a3      	str	r3, [r4, r2]
 80027e4:	3204      	adds	r2, #4
 80027e6:	50a3      	str	r3, [r4, r2]
 80027e8:	2300      	movs	r3, #0
 80027ea:	2000      	movs	r0, #0
 80027ec:	3a08      	subs	r2, #8
 80027ee:	66e3      	str	r3, [r4, #108]	; 0x6c
 80027f0:	54a3      	strb	r3, [r4, r2]
 80027f2:	b003      	add	sp, #12
 80027f4:	bd30      	pop	{r4, r5, pc}
 80027f6:	2180      	movs	r1, #128	; 0x80
 80027f8:	4b14      	ldr	r3, [pc, #80]	; (800284c <HAL_UART_Init+0xd4>)
 80027fa:	2200      	movs	r2, #0
 80027fc:	9300      	str	r3, [sp, #0]
 80027fe:	0389      	lsls	r1, r1, #14
 8002800:	0003      	movs	r3, r0
 8002802:	0020      	movs	r0, r4
 8002804:	f7ff ff42 	bl	800268c <UART_WaitOnFlagUntilTimeout>
 8002808:	2800      	cmp	r0, #0
 800280a:	d11a      	bne.n	8002842 <HAL_UART_Init+0xca>
 800280c:	6823      	ldr	r3, [r4, #0]
 800280e:	681b      	ldr	r3, [r3, #0]
 8002810:	075b      	lsls	r3, r3, #29
 8002812:	d5e4      	bpl.n	80027de <HAL_UART_Init+0x66>
 8002814:	e00a      	b.n	800282c <HAL_UART_Init+0xb4>
 8002816:	0020      	movs	r0, r4
 8002818:	f7ff fed0 	bl	80025bc <UART_AdvFeatureConfig>
 800281c:	e7c5      	b.n	80027aa <HAL_UART_Init+0x32>
 800281e:	2001      	movs	r0, #1
 8002820:	e7e7      	b.n	80027f2 <HAL_UART_Init+0x7a>
 8002822:	2280      	movs	r2, #128	; 0x80
 8002824:	5483      	strb	r3, [r0, r2]
 8002826:	f7fe f9a7 	bl	8000b78 <HAL_UART_MspInit>
 800282a:	e7ae      	b.n	800278a <HAL_UART_Init+0x12>
 800282c:	2180      	movs	r1, #128	; 0x80
 800282e:	4b07      	ldr	r3, [pc, #28]	; (800284c <HAL_UART_Init+0xd4>)
 8002830:	2200      	movs	r2, #0
 8002832:	9300      	str	r3, [sp, #0]
 8002834:	0020      	movs	r0, r4
 8002836:	002b      	movs	r3, r5
 8002838:	03c9      	lsls	r1, r1, #15
 800283a:	f7ff ff27 	bl	800268c <UART_WaitOnFlagUntilTimeout>
 800283e:	2800      	cmp	r0, #0
 8002840:	d0cd      	beq.n	80027de <HAL_UART_Init+0x66>
 8002842:	2003      	movs	r0, #3
 8002844:	e7d5      	b.n	80027f2 <HAL_UART_Init+0x7a>
 8002846:	46c0      	nop			; (mov r8, r8)
 8002848:	ffffb7ff 	.word	0xffffb7ff
 800284c:	01ffffff 	.word	0x01ffffff

08002850 <HAL_UARTEx_DisableFifoMode>:
 8002850:	b570      	push	{r4, r5, r6, lr}
 8002852:	2480      	movs	r4, #128	; 0x80
 8002854:	5d03      	ldrb	r3, [r0, r4]
 8002856:	2b01      	cmp	r3, #1
 8002858:	d012      	beq.n	8002880 <HAL_UARTEx_DisableFifoMode+0x30>
 800285a:	2584      	movs	r5, #132	; 0x84
 800285c:	2324      	movs	r3, #36	; 0x24
 800285e:	2601      	movs	r6, #1
 8002860:	5143      	str	r3, [r0, r5]
 8002862:	6803      	ldr	r3, [r0, #0]
 8002864:	681a      	ldr	r2, [r3, #0]
 8002866:	6819      	ldr	r1, [r3, #0]
 8002868:	43b1      	bics	r1, r6
 800286a:	6019      	str	r1, [r3, #0]
 800286c:	4905      	ldr	r1, [pc, #20]	; (8002884 <HAL_UARTEx_DisableFifoMode+0x34>)
 800286e:	400a      	ands	r2, r1
 8002870:	2100      	movs	r1, #0
 8002872:	6641      	str	r1, [r0, #100]	; 0x64
 8002874:	601a      	str	r2, [r3, #0]
 8002876:	2320      	movs	r3, #32
 8002878:	5143      	str	r3, [r0, r5]
 800287a:	5501      	strb	r1, [r0, r4]
 800287c:	2000      	movs	r0, #0
 800287e:	bd70      	pop	{r4, r5, r6, pc}
 8002880:	2002      	movs	r0, #2
 8002882:	e7fc      	b.n	800287e <HAL_UARTEx_DisableFifoMode+0x2e>
 8002884:	dfffffff 	.word	0xdfffffff

08002888 <HAL_UARTEx_SetTxFifoThreshold>:
 8002888:	b5f0      	push	{r4, r5, r6, r7, lr}
 800288a:	46d6      	mov	lr, sl
 800288c:	464f      	mov	r7, r9
 800288e:	4646      	mov	r6, r8
 8002890:	2380      	movs	r3, #128	; 0x80
 8002892:	b5c0      	push	{r6, r7, lr}
 8002894:	5cc3      	ldrb	r3, [r0, r3]
 8002896:	0004      	movs	r4, r0
 8002898:	000a      	movs	r2, r1
 800289a:	2b01      	cmp	r3, #1
 800289c:	d03d      	beq.n	800291a <HAL_UARTEx_SetTxFifoThreshold+0x92>
 800289e:	2384      	movs	r3, #132	; 0x84
 80028a0:	2124      	movs	r1, #36	; 0x24
 80028a2:	6805      	ldr	r5, [r0, #0]
 80028a4:	50c1      	str	r1, [r0, r3]
 80028a6:	682e      	ldr	r6, [r5, #0]
 80028a8:	682b      	ldr	r3, [r5, #0]
 80028aa:	3923      	subs	r1, #35	; 0x23
 80028ac:	438b      	bics	r3, r1
 80028ae:	602b      	str	r3, [r5, #0]
 80028b0:	68ab      	ldr	r3, [r5, #8]
 80028b2:	00db      	lsls	r3, r3, #3
 80028b4:	08d9      	lsrs	r1, r3, #3
 80028b6:	6e43      	ldr	r3, [r0, #100]	; 0x64
 80028b8:	4311      	orrs	r1, r2
 80028ba:	60a9      	str	r1, [r5, #8]
 80028bc:	2b00      	cmp	r3, #0
 80028be:	d029      	beq.n	8002914 <HAL_UARTEx_SetTxFifoThreshold+0x8c>
 80028c0:	68ab      	ldr	r3, [r5, #8]
 80028c2:	4a17      	ldr	r2, [pc, #92]	; (8002920 <HAL_UARTEx_SetTxFifoThreshold+0x98>)
 80028c4:	4698      	mov	r8, r3
 80028c6:	4692      	mov	sl, r2
 80028c8:	68ab      	ldr	r3, [r5, #8]
 80028ca:	0f5b      	lsrs	r3, r3, #29
 80028cc:	5cd0      	ldrb	r0, [r2, r3]
 80028ce:	4a15      	ldr	r2, [pc, #84]	; (8002924 <HAL_UARTEx_SetTxFifoThreshold+0x9c>)
 80028d0:	00c0      	lsls	r0, r0, #3
 80028d2:	5cd1      	ldrb	r1, [r2, r3]
 80028d4:	4691      	mov	r9, r2
 80028d6:	f7fd fc9f 	bl	8000218 <__divsi3>
 80028da:	4643      	mov	r3, r8
 80028dc:	4652      	mov	r2, sl
 80028de:	011b      	lsls	r3, r3, #4
 80028e0:	0f5b      	lsrs	r3, r3, #29
 80028e2:	b287      	uxth	r7, r0
 80028e4:	5cd0      	ldrb	r0, [r2, r3]
 80028e6:	464a      	mov	r2, r9
 80028e8:	00c0      	lsls	r0, r0, #3
 80028ea:	5cd1      	ldrb	r1, [r2, r3]
 80028ec:	f7fd fc94 	bl	8000218 <__divsi3>
 80028f0:	b280      	uxth	r0, r0
 80028f2:	2368      	movs	r3, #104	; 0x68
 80028f4:	2220      	movs	r2, #32
 80028f6:	52e0      	strh	r0, [r4, r3]
 80028f8:	3302      	adds	r3, #2
 80028fa:	52e7      	strh	r7, [r4, r3]
 80028fc:	331a      	adds	r3, #26
 80028fe:	602e      	str	r6, [r5, #0]
 8002900:	50e2      	str	r2, [r4, r3]
 8002902:	2200      	movs	r2, #0
 8002904:	2000      	movs	r0, #0
 8002906:	3b04      	subs	r3, #4
 8002908:	54e2      	strb	r2, [r4, r3]
 800290a:	bce0      	pop	{r5, r6, r7}
 800290c:	46ba      	mov	sl, r7
 800290e:	46b1      	mov	r9, r6
 8002910:	46a8      	mov	r8, r5
 8002912:	bdf0      	pop	{r4, r5, r6, r7, pc}
 8002914:	2001      	movs	r0, #1
 8002916:	2701      	movs	r7, #1
 8002918:	e7eb      	b.n	80028f2 <HAL_UARTEx_SetTxFifoThreshold+0x6a>
 800291a:	2002      	movs	r0, #2
 800291c:	e7f5      	b.n	800290a <HAL_UARTEx_SetTxFifoThreshold+0x82>
 800291e:	46c0      	nop			; (mov r8, r8)
 8002920:	08002ad8 	.word	0x08002ad8
 8002924:	08002ad0 	.word	0x08002ad0

08002928 <HAL_UARTEx_SetRxFifoThreshold>:
 8002928:	b5f0      	push	{r4, r5, r6, r7, lr}
 800292a:	46d6      	mov	lr, sl
 800292c:	464f      	mov	r7, r9
 800292e:	4646      	mov	r6, r8
 8002930:	2380      	movs	r3, #128	; 0x80
 8002932:	b5c0      	push	{r6, r7, lr}
 8002934:	5cc3      	ldrb	r3, [r0, r3]
 8002936:	0004      	movs	r4, r0
 8002938:	000a      	movs	r2, r1
 800293a:	2b01      	cmp	r3, #1
 800293c:	d03d      	beq.n	80029ba <HAL_UARTEx_SetRxFifoThreshold+0x92>
 800293e:	2384      	movs	r3, #132	; 0x84
 8002940:	2124      	movs	r1, #36	; 0x24
 8002942:	6805      	ldr	r5, [r0, #0]
 8002944:	50c1      	str	r1, [r0, r3]
 8002946:	682e      	ldr	r6, [r5, #0]
 8002948:	682b      	ldr	r3, [r5, #0]
 800294a:	3923      	subs	r1, #35	; 0x23
 800294c:	438b      	bics	r3, r1
 800294e:	602b      	str	r3, [r5, #0]
 8002950:	68a9      	ldr	r1, [r5, #8]
 8002952:	4b1b      	ldr	r3, [pc, #108]	; (80029c0 <HAL_UARTEx_SetRxFifoThreshold+0x98>)
 8002954:	4019      	ands	r1, r3
 8002956:	6e43      	ldr	r3, [r0, #100]	; 0x64
 8002958:	4311      	orrs	r1, r2
 800295a:	60a9      	str	r1, [r5, #8]
 800295c:	2b00      	cmp	r3, #0
 800295e:	d029      	beq.n	80029b4 <HAL_UARTEx_SetRxFifoThreshold+0x8c>
 8002960:	68ab      	ldr	r3, [r5, #8]
 8002962:	4a18      	ldr	r2, [pc, #96]	; (80029c4 <HAL_UARTEx_SetRxFifoThreshold+0x9c>)
 8002964:	4698      	mov	r8, r3
 8002966:	4692      	mov	sl, r2
 8002968:	68ab      	ldr	r3, [r5, #8]
 800296a:	0f5b      	lsrs	r3, r3, #29
 800296c:	5cd0      	ldrb	r0, [r2, r3]
 800296e:	4a16      	ldr	r2, [pc, #88]	; (80029c8 <HAL_UARTEx_SetRxFifoThreshold+0xa0>)
 8002970:	00c0      	lsls	r0, r0, #3
 8002972:	5cd1      	ldrb	r1, [r2, r3]
 8002974:	4691      	mov	r9, r2
 8002976:	f7fd fc4f 	bl	8000218 <__divsi3>
 800297a:	4643      	mov	r3, r8
 800297c:	4652      	mov	r2, sl
 800297e:	011b      	lsls	r3, r3, #4
 8002980:	0f5b      	lsrs	r3, r3, #29
 8002982:	b287      	uxth	r7, r0
 8002984:	5cd0      	ldrb	r0, [r2, r3]
 8002986:	464a      	mov	r2, r9
 8002988:	00c0      	lsls	r0, r0, #3
 800298a:	5cd1      	ldrb	r1, [r2, r3]
 800298c:	f7fd fc44 	bl	8000218 <__divsi3>
 8002990:	b280      	uxth	r0, r0
 8002992:	2368      	movs	r3, #104	; 0x68
 8002994:	2220      	movs	r2, #32
 8002996:	52e0      	strh	r0, [r4, r3]
 8002998:	3302      	adds	r3, #2
 800299a:	52e7      	strh	r7, [r4, r3]
 800299c:	331a      	adds	r3, #26
 800299e:	602e      	str	r6, [r5, #0]
 80029a0:	50e2      	str	r2, [r4, r3]
 80029a2:	2200      	movs	r2, #0
 80029a4:	2000      	movs	r0, #0
 80029a6:	3b04      	subs	r3, #4
 80029a8:	54e2      	strb	r2, [r4, r3]
 80029aa:	bce0      	pop	{r5, r6, r7}
 80029ac:	46ba      	mov	sl, r7
 80029ae:	46b1      	mov	r9, r6
 80029b0:	46a8      	mov	r8, r5
 80029b2:	bdf0      	pop	{r4, r5, r6, r7, pc}
 80029b4:	2001      	movs	r0, #1
 80029b6:	2701      	movs	r7, #1
 80029b8:	e7eb      	b.n	8002992 <HAL_UARTEx_SetRxFifoThreshold+0x6a>
 80029ba:	2002      	movs	r0, #2
 80029bc:	e7f5      	b.n	80029aa <HAL_UARTEx_SetRxFifoThreshold+0x82>
 80029be:	46c0      	nop			; (mov r8, r8)
 80029c0:	f1ffffff 	.word	0xf1ffffff
 80029c4:	08002ad8 	.word	0x08002ad8
 80029c8:	08002ad0 	.word	0x08002ad0

080029cc <__libc_init_array>:
 80029cc:	b570      	push	{r4, r5, r6, lr}
 80029ce:	2600      	movs	r6, #0
 80029d0:	4d0c      	ldr	r5, [pc, #48]	; (8002a04 <__libc_init_array+0x38>)
 80029d2:	4c0d      	ldr	r4, [pc, #52]	; (8002a08 <__libc_init_array+0x3c>)
 80029d4:	1b64      	subs	r4, r4, r5
 80029d6:	10a4      	asrs	r4, r4, #2
 80029d8:	42a6      	cmp	r6, r4
 80029da:	d109      	bne.n	80029f0 <__libc_init_array+0x24>
 80029dc:	2600      	movs	r6, #0
 80029de:	f000 f821 	bl	8002a24 <_init>
 80029e2:	4d0a      	ldr	r5, [pc, #40]	; (8002a0c <__libc_init_array+0x40>)
 80029e4:	4c0a      	ldr	r4, [pc, #40]	; (8002a10 <__libc_init_array+0x44>)
 80029e6:	1b64      	subs	r4, r4, r5
 80029e8:	10a4      	asrs	r4, r4, #2
 80029ea:	42a6      	cmp	r6, r4
 80029ec:	d105      	bne.n	80029fa <__libc_init_array+0x2e>
 80029ee:	bd70      	pop	{r4, r5, r6, pc}
 80029f0:	00b3      	lsls	r3, r6, #2
 80029f2:	58eb      	ldr	r3, [r5, r3]
 80029f4:	4798      	blx	r3
 80029f6:	3601      	adds	r6, #1
 80029f8:	e7ee      	b.n	80029d8 <__libc_init_array+0xc>
 80029fa:	00b3      	lsls	r3, r6, #2
 80029fc:	58eb      	ldr	r3, [r5, r3]
 80029fe:	4798      	blx	r3
 8002a00:	3601      	adds	r6, #1
 8002a02:	e7f2      	b.n	80029ea <__libc_init_array+0x1e>
 8002a04:	08002ae8 	.word	0x08002ae8
 8002a08:	08002ae8 	.word	0x08002ae8
 8002a0c:	08002ae8 	.word	0x08002ae8
 8002a10:	08002aec 	.word	0x08002aec

08002a14 <memset>:
 8002a14:	0003      	movs	r3, r0
 8002a16:	1882      	adds	r2, r0, r2
 8002a18:	4293      	cmp	r3, r2
 8002a1a:	d100      	bne.n	8002a1e <memset+0xa>
 8002a1c:	4770      	bx	lr
 8002a1e:	7019      	strb	r1, [r3, #0]
 8002a20:	3301      	adds	r3, #1
 8002a22:	e7f9      	b.n	8002a18 <memset+0x4>

08002a24 <_init>:
 8002a24:	b5f8      	push	{r3, r4, r5, r6, r7, lr}
 8002a26:	46c0      	nop			; (mov r8, r8)
 8002a28:	bcf8      	pop	{r3, r4, r5, r6, r7}
 8002a2a:	bc08      	pop	{r3}
 8002a2c:	469e      	mov	lr, r3
 8002a2e:	4770      	bx	lr

08002a30 <_fini>:
 8002a30:	b5f8      	push	{r3, r4, r5, r6, r7, lr}
 8002a32:	46c0      	nop			; (mov r8, r8)
 8002a34:	bcf8      	pop	{r3, r4, r5, r6, r7}
 8002a36:	bc08      	pop	{r3}
 8002a38:	469e      	mov	lr, r3
 8002a3a:	4770      	bx	lr
